ccopy_reg
_reconstructor
p0
(ctweet_featureset
TweetFeatureset
p1
c__builtin__
object
p2
Ntp3
Rp4
(dp5
S'idf_set'
p6
g0
(ctf_idf
IdfDict
p7
c__builtin__
dict
p8
(dp9
S'secondly'
p10
F7.243155512642015
sS'foul'
p11
F7.243155512642015
sS'protest'
p12
F6.83769040453385
sS'hanging'
p13
F7.243155512642015
sS'genre'
p14
F6.5500083320820695
sS'fronts'
p15
F7.243155512642015
sS'buddy'
p16
F6.83769040453385
sS'objection'
p17
F7.243155512642015
sS'presents'
p18
F7.243155512642015
sS'bailout'
p19
F7.243155512642015
sS'xunit'
p20
F7.243155512642015
sS'teaching'
p21
F6.5500083320820695
sS'immature'
p22
F7.243155512642015
sS'updated'
p23
F6.5500083320820695
sS'collaborate'
p24
F7.243155512642015
sS'calpico'
p25
F7.243155512642015
sS'hacked'
p26
F7.243155512642015
sS'activation'
p27
F7.243155512642015
sS'malmo'
p28
F7.243155512642015
sS'updater'
p29
F7.243155512642015
sS'yellow'
p30
F7.243155512642015
sS'bringing'
p31
F6.83769040453385
sS'vast'
p32
F7.243155512642015
sS'basics'
p33
F7.243155512642015
sS'prize'
p34
F7.243155512642015
sS'skills'
p35
F6.32686478076786
sS'companies'
p36
F6.83769040453385
sS'commons'
p37
F6.32686478076786
sS'unrelated'
p38
F7.243155512642015
sS'rapeculture'
p39
F7.243155512642015
sS'oooh'
p40
F7.243155512642015
sS'polyamory'
p41
F7.243155512642015
sS'clothes'
p42
F7.243155512642015
sS'farmhouse'
p43
F7.243155512642015
sS'force'
p44
F6.83769040453385
sS'nigh'
p45
F7.243155512642015
sS'tired'
p46
F7.243155512642015
sS'thabks'
p47
F7.243155512642015
sS'aides'
p48
F7.243155512642015
sS'bacon'
p49
F7.243155512642015
sS'japanese'
p50
F6.83769040453385
sS'second'
p51
F6.5500083320820695
sS'neo'
p52
F7.243155512642015
sS'errors'
p53
F6.83769040453385
sS'preferences'
p54
F7.243155512642015
sS'iterating'
p55
F7.243155512642015
sS'prisons'
p56
F7.243155512642015
sS'contributed'
p57
F6.83769040453385
sS'sexuality'
p58
F7.243155512642015
sS'tips'
p59
F6.83769040453385
sS'contributes'
p60
F7.243155512642015
sS'metadata'
p61
F5.4513960434139594
sS'men'
p62
F5.990392544146647
sS'disposable'
p63
F6.5500083320820695
sS'met'
p64
F6.144543223973905
sS'deposition'
p65
F7.243155512642015
sS'china'
p66
F6.32686478076786
sS'active'
p67
F7.243155512642015
sS'dronestagram'
p68
F7.243155512642015
sS'violate'
p69
F7.243155512642015
sS'kids'
p70
F5.990392544146647
sS'unwillingness'
p71
F7.243155512642015
sS'elaborate'
p72
F7.243155512642015
sS'economics'
p73
F6.83769040453385
sS'reports'
p74
F6.83769040453385
sS'controversy'
p75
F6.83769040453385
sS'credit'
p76
F6.5500083320820695
sS'harass'
p77
F6.83769040453385
sS'drm'
p78
F7.243155512642015
sS'military'
p79
F6.5500083320820695
sS'golden'
p80
F6.83769040453385
sS'fantastic'
p81
F6.83769040453385
sS'moocs'
p82
F7.243155512642015
sS'occupyg'
p83
F7.243155512642015
sS'campaign'
p84
F6.83769040453385
sS'replace'
p85
F6.83769040453385
sS'brought'
p86
F6.83769040453385
sS'hahahahah'
p87
F7.243155512642015
sS'specifics'
p88
F7.243155512642015
sS'busses'
p89
F6.83769040453385
sS'moral'
p90
F6.83769040453385
sS'counts'
p91
F6.5500083320820695
sS'unit'
p92
F7.243155512642015
sS'opponents'
p93
F7.243155512642015
sS'cheating'
p94
F7.243155512642015
sS'spoke'
p95
F6.83769040453385
sS'overshadow'
p96
F7.243155512642015
sS'arms'
p97
F6.83769040453385
sS'leaks'
p98
F6.83769040453385
sS'bike'
p99
F6.5500083320820695
sS'music'
p100
F6.32686478076786
sS'calm'
p101
F7.243155512642015
sS'passport'
p102
F6.83769040453385
sS'recommend'
p103
F6.83769040453385
sS'strike'
p104
F6.5500083320820695
sS'type'
p105
F5.856861151522124
sS'snowden'
p106
F4.409942168585799
sS'posting'
p107
F6.83769040453385
sS'holy'
p108
F6.83769040453385
sS'relax'
p109
F7.243155512642015
sS'successful'
p110
F6.83769040453385
sS'expose'
p111
F7.243155512642015
sS'wars'
p112
F7.243155512642015
sS'hurt'
p113
F7.243155512642015
sS'confs'
p114
F7.243155512642015
sS'glass'
p115
F5.856861151522124
sS'thinkpad'
p116
F6.32686478076786
sS'listenin'
p117
F7.243155512642015
sS'morally'
p118
F7.243155512642015
sS'room'
p119
F6.5500083320820695
sS'rights'
p120
F5.53840742040359
sS'setup'
p121
F6.5500083320820695
sS'spec'
p122
F6.5500083320820695
sS'movies'
p123
F7.243155512642015
sS'yup'
p124
F3.436493022871695
sS'exceptions'
p125
F6.83769040453385
sS'root'
p126
F6.83769040453385
sS'example'
p127
F5.53840742040359
sS'hyatt'
p128
F6.5500083320820695
sS'organized'
p129
F7.243155512642015
sS'implementations'
p130
F7.243155512642015
sS'reviewing'
p131
F7.243155512642015
sS'merrricaaaa'
p132
F7.243155512642015
sS'autonomy'
p133
F7.243155512642015
sS'hoc'
p134
F7.243155512642015
sS'turn'
p135
F6.144543223973905
sS'complaining'
p136
F6.83769040453385
sS'travel'
p137
F5.633717600207914
sS'feature'
p138
F7.243155512642015
sS'machine'
p139
F6.83769040453385
sS'amazing'
p140
F4.845260239843644
sS'answer'
p141
F5.53840742040359
sS'config'
p142
F7.243155512642015
sS'aurora'
p143
F7.243155512642015
sS'aboard'
p144
F7.243155512642015
sS'mueller'
p145
F7.243155512642015
sS'abstraction'
p146
F7.243155512642015
sS'typed'
p147
F7.243155512642015
sS'sidekiq'
p148
F7.243155512642015
sS'diagram'
p149
F7.243155512642015
sS'wrong'
p150
F5.297245363586701
sS'president'
p151
F6.83769040453385
sS'types'
p152
F6.83769040453385
sS'shaw'
p153
F7.243155512642015
sS'purchase'
p154
F7.243155512642015
sS'attempt'
p155
F7.243155512642015
sS'effective'
p156
F6.83769040453385
sS'wins'
p157
F6.83769040453385
sS'revolt'
p158
F7.243155512642015
sS'capitalism'
p159
F5.633717600207914
sS'maintain'
p160
F6.83769040453385
sS'jsconf'
p161
F7.243155512642015
sS'capitalist'
p162
F6.83769040453385
sS'communistic'
p163
F7.243155512642015
sS'democratic'
p164
F6.83769040453385
sS'wing'
p165
F6.83769040453385
sS'recieves'
p166
F7.243155512642015
sS'senators'
p167
F6.83769040453385
sS'feedback'
p168
F6.32686478076786
sS'misdemeanor'
p169
F7.243155512642015
sS'concurrency'
p170
F6.32686478076786
sS'keyboard'
p171
F6.83769040453385
sS'responsive'
p172
F7.243155512642015
sS'fellas'
p173
F7.243155512642015
sS'fir'
p174
F7.243155512642015
sS'indispensible'
p175
F7.243155512642015
sS'matures'
p176
F7.243155512642015
sS'fit'
p177
F6.83769040453385
sS'personal'
p178
F6.144543223973905
sS'striking'
p179
F7.243155512642015
sS'better'
p180
F4.409942168585799
sS'differently'
p181
F7.243155512642015
sS'persist'
p182
F7.243155512642015
sS'nobler'
p183
F7.243155512642015
sS'wales'
p184
F6.83769040453385
sS'weeks'
p185
F5.990392544146647
sS'erlang'
p186
F6.83769040453385
sS'easier'
p187
F6.5500083320820695
sS'thrones'
p188
F7.243155512642015
sS'entomology'
p189
F7.243155512642015
sS'longesttripever'
p190
F7.243155512642015
sS'food'
p191
F6.5500083320820695
sS'schools'
p192
F6.83769040453385
sS'evidentiary'
p193
F7.243155512642015
sS'meap'
p194
F6.83769040453385
sS'rhetoric'
p195
F7.243155512642015
sS'meat'
p196
F6.5500083320820695
sS'arrested'
p197
F7.243155512642015
sS'understa'
p198
F7.243155512642015
sS'side'
p199
F5.73907811586574
sS'luck'
p200
F6.32686478076786
sS'adobe'
p201
F7.243155512642015
sS'neocities'
p202
F7.243155512642015
sS'series'
p203
F6.83769040453385
sS'principles'
p204
F7.243155512642015
sS'carry'
p205
F6.83769040453385
sS'taught'
p206
F6.5500083320820695
sS'forgot'
p207
F5.990392544146647
sS'mongoid'
p208
F7.243155512642015
sS'dawn'
p209
F7.243155512642015
sS'message'
p210
F6.144543223973905
sS'forwarding'
p211
F7.243155512642015
sS'monetizing'
p212
F7.243155512642015
sS'tomorrow'
p213
F5.53840742040359
sS'content'
p214
F5.990392544146647
sS'dsl'
p215
F7.243155512642015
sS'reader'
p216
F6.5500083320820695
sS'surprise'
p217
F6.5500083320820695
sS'millions'
p218
F6.5500083320820695
sS'venezuela'
p219
F7.243155512642015
sS'turning'
p220
F7.243155512642015
sS'revenge'
p221
F7.243155512642015
sS'infir'
p222
F7.243155512642015
sS'sheet'
p223
F7.243155512642015
sS'obstructing'
p224
F7.243155512642015
sS'competes'
p225
F7.243155512642015
sS'iss'
p226
F7.243155512642015
sS'hmmmmmmmmmmmmmmmm'
p227
F7.243155512642015
sS'ableism'
p228
F7.243155512642015
sS'isp'
p229
F7.243155512642015
sS'viewing'
p230
F7.243155512642015
sS'commented'
p231
F7.243155512642015
sS'silicon'
p232
F6.5500083320820695
sS'shipped'
p233
F7.243155512642015
sS'ish'
p234
F6.5500083320820695
sS'isn'
p235
F4.991863714035519
sS'loud'
p236
F7.243155512642015
sS'cleaning'
p237
F7.243155512642015
sS'loook'
p238
F7.243155512642015
sS'wronged'
p239
F7.243155512642015
sS'features'
p240
F6.5500083320820695
sS'hook'
p241
F7.243155512642015
sS'featured'
p242
F7.243155512642015
sS'downside'
p243
F7.243155512642015
sS'wasn'
p244
F5.4513960434139594
sS'immensely'
p245
F7.243155512642015
sS'grads'
p246
F7.243155512642015
sS'hydrant'
p247
F7.243155512642015
sS'service'
p248
F6.144543223973905
sS'camelcase'
p249
F7.243155512642015
sS'girls'
p250
F6.5500083320820695
sS'needed'
p251
F5.856861151522124
sS'master'
p252
F7.243155512642015
sS'listed'
p253
F7.243155512642015
sS'draft'
p254
F7.243155512642015
sS'hollywood'
p255
F7.243155512642015
sS'bitter'
p256
F7.243155512642015
sS'listen'
p257
F6.83769040453385
sS'geneva'
p258
F7.243155512642015
sS'digg'
p259
F7.243155512642015
sS'boarding'
p260
F6.5500083320820695
sS'spoiler'
p261
F6.5500083320820695
sS'affront'
p262
F7.243155512642015
sS'cite'
p263
F6.83769040453385
sS'project'
p264
F5.045930935305795
sS'matter'
p265
F5.4513960434139594
sS'street'
p266
F6.83769040453385
sS'silly'
p267
F6.5500083320820695
sS'espouse'
p268
F7.243155512642015
sS'feeling'
p269
F7.243155512642015
sS'mini'
p270
F7.243155512642015
sS'blackhawks'
p271
F7.243155512642015
sS'sees'
p272
F7.243155512642015
sS'modern'
p273
F6.32686478076786
sS'mind'
p274
F7.243155512642015
sS'mine'
p275
F5.73907811586574
sS'besiktas'
p276
F7.243155512642015
sS'mins'
p277
F7.243155512642015
sS'seek'
p278
F7.243155512642015
sS'tells'
p279
F6.83769040453385
sS'dozen'
p280
F6.83769040453385
sS'concrete'
p281
F7.243155512642015
sS'desist'
p282
F7.243155512642015
sS'causing'
p283
F7.243155512642015
sS'unuusual'
p284
F7.243155512642015
sS'memo'
p285
F7.243155512642015
sS'committing'
p286
F7.243155512642015
sS'object'
p287
F6.5500083320820695
sS'doit'
p288
F7.243155512642015
sS'regular'
p289
F6.5500083320820695
sS'icloud'
p290
F7.243155512642015
sS'entry'
p291
F6.5500083320820695
sS'iterate'
p292
F7.243155512642015
sS'rubydramas'
p293
F7.243155512642015
sS'morality'
p294
F7.243155512642015
sS'doj'
p295
F6.83769040453385
sS'assisting'
p296
F7.243155512642015
sS'don'
p297
F3.3719545017341237
sS'cops'
p298
F5.53840742040359
sS'emailing'
p299
F7.243155512642015
sS'doc'
p300
F7.243155512642015
sS'medical'
p301
F6.83769040453385
sS'camp'
p302
F6.5500083320820695
sS'dog'
p303
F6.83769040453385
sS'sheryl'
p304
F7.243155512642015
sS'points'
p305
F5.990392544146647
sS'tech'
p306
F5.22825249209975
sS'principle'
p307
F7.243155512642015
sS'mailing'
p308
F6.83769040453385
sS'dot'
p309
F6.32686478076786
sS'planetary'
p310
F7.243155512642015
sS'bomb'
p311
F7.243155512642015
sS'crunchbang'
p312
F5.297245363586701
sS'sexist'
p313
F6.32686478076786
sS'syntax'
p314
F6.32686478076786
sS'soluble'
p315
F7.243155512642015
sS'stepping'
p316
F7.243155512642015
sS'sexism'
p317
F6.83769040453385
sS'reinvented'
p318
F7.243155512642015
sS'busy'
p319
F5.990392544146647
sS'excavator'
p320
F7.243155512642015
sS'headline'
p321
F6.5500083320820695
sS'explain'
p322
F6.32686478076786
sS'theme'
p323
F5.856861151522124
sS'intrinsically'
p324
F7.243155512642015
sS'rich'
p325
F6.144543223973905
sS'folks'
p326
F6.83769040453385
sS'schneier'
p327
F6.83769040453385
sS'wearing'
p328
F6.5500083320820695
sS'monica'
p329
F5.990392544146647
sS'ahahaha'
p330
F6.5500083320820695
sS'pocket'
p331
F7.243155512642015
sS'watermelon'
p332
F7.243155512642015
sS'comply'
p333
F7.243155512642015
sS'societies'
p334
F7.243155512642015
sS'earn'
p335
F7.243155512642015
sS'bar'
p336
F6.5500083320820695
sS'nicely'
p337
F6.83769040453385
sS'fields'
p338
F7.243155512642015
sS'patch'
p339
F7.243155512642015
sS'bag'
p340
F7.243155512642015
sS'bad'
p341
F5.103089349145744
sS'feudalism'
p342
F7.243155512642015
sS'release'
p343
F5.297245363586701
sS'bam'
p344
F7.243155512642015
sS'flagged'
p345
F7.243155512642015
sS'bah'
p346
F7.243155512642015
sS'ethical'
p347
F6.83769040453385
sS'disaster'
p348
F7.243155512642015
sS'fascinating'
p349
F6.83769040453385
sS'testing'
p350
F7.243155512642015
sS'blameless'
p351
F7.243155512642015
sS'zones'
p352
F6.83769040453385
sS'goodnight'
p353
F7.243155512642015
sS'result'
p354
F6.83769040453385
sS'fail'
p355
F6.83769040453385
sS'foss'
p356
F7.243155512642015
sS'best'
p357
F4.991863714035519
sS'subject'
p358
F6.83769040453385
sS'brazil'
p359
F6.144543223973905
sS'peta'
p360
F7.243155512642015
sS'inappropriate'
p361
F7.243155512642015
sS'sorta'
p362
F6.5500083320820695
sS'delphi'
p363
F7.243155512642015
sS'wikipedia'
p364
F6.144543223973905
sS'artificial'
p365
F6.83769040453385
sS'score'
p366
F7.243155512642015
sS'irl'
p367
F6.83769040453385
sS'conceptual'
p368
F7.243155512642015
sS'irc'
p369
F7.243155512642015
sS'lazy'
p370
F7.243155512642015
sS'omg'
p371
F5.856861151522124
sS'felony'
p372
F7.243155512642015
sS'wtf'
p373
F6.5500083320820695
sS'carbon'
p374
F5.990392544146647
sS'debt'
p375
F6.32686478076786
sS'suggested'
p376
F7.243155512642015
sS'complain'
p377
F7.243155512642015
sS'erdogan'
p378
F7.243155512642015
sS'reported'
p379
F7.243155512642015
sS'country'
p380
F5.990392544146647
sS'pits'
p381
F6.83769040453385
sS'federated'
p382
F7.243155512642015
sS'edgar'
p383
F7.243155512642015
sS'urls'
p384
F6.5500083320820695
sS'logic'
p385
F6.144543223973905
sS'distinction'
p386
F7.243155512642015
sS'contribution'
p387
F7.243155512642015
sS'confronted'
p388
F6.83769040453385
sS'asked'
p389
F5.856861151522124
sS'miscommunication'
p390
F7.243155512642015
sS'monad'
p391
F6.83769040453385
sS'irresponsible'
p392
F7.243155512642015
sS'cult'
p393
F7.243155512642015
sS'matte'
p394
F7.243155512642015
sS'exclusively'
p395
F7.243155512642015
sS'diff'
p396
F6.5500083320820695
sS'targeting'
p397
F7.243155512642015
sS'prc'
p398
F6.83769040453385
sS'billing'
p399
F7.243155512642015
sS'eager'
p400
F6.83769040453385
sS'futility'
p401
F7.243155512642015
sS'three'
p402
F6.83769040453385
sS'tiny'
p403
F6.32686478076786
sS'orthodoxy'
p404
F7.243155512642015
sS'subsidy'
p405
F7.243155512642015
sS'commission'
p406
F7.243155512642015
sS'frp'
p407
F7.243155512642015
sS'interest'
p408
F7.243155512642015
sS'tutorials'
p409
F6.83769040453385
sS'lovely'
p410
F7.243155512642015
sS'pro'
p411
F6.83769040453385
sS'threw'
p412
F6.83769040453385
sS'website'
p413
F6.144543223973905
sS'life'
p414
F5.4513960434139594
sS'turned'
p415
F6.144543223973905
sS'criminalised'
p416
F7.243155512642015
sS'locations'
p417
F7.243155512642015
sS'substance'
p418
F7.243155512642015
sS'child'
p419
F7.243155512642015
sS'worked'
p420
F6.5500083320820695
sS'haters'
p421
F7.243155512642015
sS'chill'
p422
F7.243155512642015
sS'commerce'
p423
F7.243155512642015
sS'tank'
p424
F7.243155512642015
sS'reverted'
p425
F7.243155512642015
sS'employ'
p426
F7.243155512642015
sS'neat'
p427
F5.22825249209975
sS'murders'
p428
F7.243155512642015
sS'leaves'
p429
F6.5500083320820695
sS'chilling'
p430
F7.243155512642015
sS'played'
p431
F6.5500083320820695
sS'trollface'
p432
F7.243155512642015
sS'defeated'
p433
F7.243155512642015
sS'player'
p434
F7.243155512642015
sS'hong'
p435
F5.990392544146647
sS'bottles'
p436
F7.243155512642015
sS'things'
p437
F4.43979513173548
sS'meetup'
p438
F6.83769040453385
sS'hahah'
p439
F5.633717600207914
sS'chatroom'
p440
F7.243155512642015
sS'success'
p441
F7.243155512642015
sS'capacities'
p442
F7.243155512642015
sS'entitled'
p443
F7.243155512642015
sS'fairly'
p444
F6.83769040453385
sS'bearded'
p445
F7.243155512642015
sS'condemnation'
p446
F7.243155512642015
sS'pitchforks'
p447
F7.243155512642015
sS'topp'
p448
F7.243155512642015
sS'ownership'
p449
F7.243155512642015
sS'opportunity'
p450
F6.32686478076786
sS'aka'
p451
F7.243155512642015
sS'thoughts'
p452
F6.32686478076786
sS'kid'
p453
F6.5500083320820695
sS'anarchists'
p454
F6.5500083320820695
sS'programs'
p455
F7.243155512642015
sS'failing'
p456
F7.243155512642015
sS'academic'
p457
F6.83769040453385
sS'academia'
p458
F6.83769040453385
sS'claims'
p459
F6.5500083320820695
sS'paradigm'
p460
F6.83769040453385
sS'corporate'
p461
F6.5500083320820695
sS'left'
p462
F5.22825249209975
sS'sentence'
p463
F5.990392544146647
sS'distribute'
p464
F6.144543223973905
sS'human'
p465
F6.5500083320820695
sS'yep'
p466
F7.243155512642015
sS'impending'
p467
F7.243155512642015
sS'previous'
p468
F7.243155512642015
sS'noscript'
p469
F7.243155512642015
sS'masse'
p470
F7.243155512642015
sS'hal'
p471
F6.83769040453385
sS'ham'
p472
F7.243155512642015
sS'character'
p473
F6.5500083320820695
sS'fortran'
p474
F6.83769040453385
sS'potential'
p475
F7.243155512642015
sS'easy'
p476
F5.297245363586701
sS'prison'
p477
F6.32686478076786
sS'save'
p478
F6.83769040453385
sS'hat'
p479
F7.243155512642015
sS'reuse'
p480
F6.5500083320820695
sS'disagreement'
p481
F7.243155512642015
sS'whichever'
p482
F7.243155512642015
sS'govt'
p483
F6.83769040453385
sS'unique'
p484
F7.243155512642015
sS'dreams'
p485
F7.243155512642015
sS'desire'
p486
F7.243155512642015
sS'nude'
p487
F7.243155512642015
sS'manual'
p488
F6.32686478076786
sS'remind'
p489
F6.83769040453385
sS'lefties'
p490
F7.243155512642015
sS'steps'
p491
F6.83769040453385
sS'bunch'
p492
F6.144543223973905
sS'warping'
p493
F7.243155512642015
sS'attorney'
p494
F7.243155512642015
sS'crowd'
p495
F6.32686478076786
sS'people'
p496
F3.436493022871695
sS'dead'
p497
F5.856861151522124
sS'reconsiders'
p498
F7.243155512642015
sS'invoice'
p499
F7.243155512642015
sS'paragraphs'
p500
F7.243155512642015
sS'dear'
p501
F7.243155512642015
sS'attendees'
p502
F6.83769040453385
sS'fox'
p503
F7.243155512642015
sS'microwave'
p504
F7.243155512642015
sS'arguing'
p505
F6.83769040453385
sS'monogamy'
p506
F7.243155512642015
sS'standwith'
p507
F7.243155512642015
sS'shakes'
p508
F7.243155512642015
sS'activemodel'
p509
F7.243155512642015
sS'burn'
p510
F7.243155512642015
sS'maintainers'
p511
F6.83769040453385
sS'super'
p512
F5.371353335740423
sS'empowerment'
p513
F7.243155512642015
sS'yelling'
p514
F7.243155512642015
sS'dollars'
p515
F6.5500083320820695
sS'citizens'
p516
F7.243155512642015
sS'beta'
p517
F7.243155512642015
sS'essential'
p518
F7.243155512642015
sS'afternoon'
p519
F6.5500083320820695
sS'commit'
p520
F5.856861151522124
sS'automatically'
p521
F7.243155512642015
sS'soa'
p522
F7.243155512642015
sS'nerve'
p523
F7.243155512642015
sS'statements'
p524
F6.32686478076786
sS'lied'
p525
F7.243155512642015
sS'intellectual'
p526
F7.243155512642015
sS'bundler'
p527
F6.5500083320820695
sS'lies'
p528
F7.243155512642015
sS'beings'
p529
F7.243155512642015
sS'raises'
p530
F7.243155512642015
sS'mbp'
p531
F7.243155512642015
sS'communists'
p532
F6.5500083320820695
sS'fabric'
p533
F7.243155512642015
sS'support'
p534
F5.53840742040359
sS'flying'
p535
F6.32686478076786
sS'chevalier'
p536
F7.243155512642015
sS'avail'
p537
F7.243155512642015
sS'absolutely'
p538
F5.297245363586701
sS'influencing'
p539
F7.243155512642015
sS'editor'
p540
F6.5500083320820695
sS'jane'
p541
F6.5500083320820695
sS'call'
p542
F5.045930935305795
sS'launching'
p543
F7.243155512642015
sS'happy'
p544
F5.103089349145744
sS'fork'
p545
F7.243155512642015
sS'polemical'
p546
F7.243155512642015
sS'ffffuuu'
p547
F7.243155512642015
sS'offering'
p548
F6.83769040453385
sS'offer'
p549
F7.243155512642015
sS'failure'
p550
F6.83769040453385
sS'bronies'
p551
F7.243155512642015
sS'surrender'
p552
F7.243155512642015
sS'fort'
p553
F7.243155512642015
sS'humbled'
p554
F7.243155512642015
sS'builds'
p555
F6.83769040453385
sS'martial'
p556
F6.83769040453385
sS'inside'
p557
F6.144543223973905
sS'mongomapper'
p558
F7.243155512642015
sS'devices'
p559
F6.83769040453385
sS'nicest'
p560
F7.243155512642015
sS'delete'
p561
F6.83769040453385
sS'liberal'
p562
F6.5500083320820695
sS'bitcoins'
p563
F7.243155512642015
sS'classic'
p564
F6.5500083320820695
sS'proven'
p565
F7.243155512642015
sS'proves'
p566
F7.243155512642015
sS'exist'
p567
F6.83769040453385
sS'toysforflow'
p568
F7.243155512642015
sS'shit'
p569
F5.045930935305795
sS'supporters'
p570
F7.243155512642015
sS'slideshare'
p571
F7.243155512642015
sS'marxist'
p572
F6.32686478076786
sS'agreeing'
p573
F7.243155512642015
sS'bankrun'
p574
F7.243155512642015
sS'generally'
p575
F5.633717600207914
sS'colonizers'
p576
F7.243155512642015
sS'republic'
p577
F7.243155512642015
sS'digital'
p578
F6.83769040453385
sS'marxism'
p579
F7.243155512642015
sS'developers'
p580
F6.32686478076786
sS'smell'
p581
F7.243155512642015
sS'misinterpreted'
p582
F7.243155512642015
sS'intend'
p583
F7.243155512642015
sS'knowyourmeme'
p584
F7.243155512642015
sS'felt'
p585
F6.5500083320820695
sS'diet'
p586
F6.83769040453385
sS'yahoo'
p587
F6.83769040453385
sS'fell'
p588
F6.83769040453385
sS'objectify'
p589
F7.243155512642015
sS'persecution'
p590
F6.83769040453385
sS'weekend'
p591
F7.243155512642015
sS'died'
p592
F6.5500083320820695
sS'billion'
p593
F6.83769040453385
sS'happening'
p594
F5.990392544146647
sS'fsf'
p595
F7.243155512642015
sS'disruption'
p596
F6.83769040453385
sS'assume'
p597
F6.83769040453385
sS'moved'
p598
F7.243155512642015
sS'contacts'
p599
F7.243155512642015
sS'daily'
p600
F6.5500083320820695
sS'ahahahahah'
p601
F6.5500083320820695
sS'teeth'
p602
F7.243155512642015
sS'push'
p603
F6.5500083320820695
sS'profits'
p604
F7.243155512642015
sS'osx'
p605
F5.53840742040359
sS'chain'
p606
F7.243155512642015
sS'skip'
p607
F7.243155512642015
sS'oss'
p608
F5.103089349145744
sS'themes'
p609
F7.243155512642015
sS'mile'
p610
F7.243155512642015
sS'osb'
p611
F7.243155512642015
sS'hijacked'
p612
F7.243155512642015
sS'suicide'
p613
F7.243155512642015
sS'technique'
p614
F7.243155512642015
sS'father'
p615
F7.243155512642015
sS'veg'
p616
F7.243155512642015
sS'finally'
p617
F6.144543223973905
sS'elliptic'
p618
F7.243155512642015
sS'marks'
p619
F7.243155512642015
sS'string'
p620
F7.243155512642015
sS'jerk'
p621
F6.83769040453385
sS'permissive'
p622
F7.243155512642015
sS'cheap'
p623
F7.243155512642015
sS'yarddoc'
p624
F7.243155512642015
sS'choice'
p625
F6.5500083320820695
sS'rationality'
p626
F7.243155512642015
sS'crowdsource'
p627
F7.243155512642015
sS'word'
p628
F4.891780255478537
sS'exact'
p629
F6.144543223973905
sS'minute'
p630
F7.243155512642015
sS'catalonia'
p631
F7.243155512642015
sS'tear'
p632
F6.32686478076786
sS'die'
p633
F6.5500083320820695
sS'democrat'
p634
F7.243155512642015
sS'leave'
p635
F5.163713970962179
sS'solved'
p636
F6.83769040453385
sS'spaces'
p637
F7.243155512642015
sS'defaults'
p638
F6.5500083320820695
sS'team'
p639
F5.856861151522124
sS'dir'
p640
F7.243155512642015
sS'prevent'
p641
F7.243155512642015
sS'bulldozer'
p642
F7.243155512642015
sS'talked'
p643
F6.83769040453385
sS'dealing'
p644
F7.243155512642015
sS'hack'
p645
F6.32686478076786
sS'sign'
p646
F5.856861151522124
sS'ungendered'
p647
F7.243155512642015
sS'shirts'
p648
F6.83769040453385
sS'targets'
p649
F7.243155512642015
sS'current'
p650
F6.32686478076786
sS'remembered'
p651
F7.243155512642015
sS'freaks'
p652
F7.243155512642015
sS'international'
p653
F6.144543223973905
sS'falling'
p654
F6.83769040453385
sS'badge'
p655
F7.243155512642015
sS'superuseful'
p656
F7.243155512642015
sS'mechanic'
p657
F7.243155512642015
sS'guardian'
p658
F7.243155512642015
sS'concepts'
p659
F7.243155512642015
sS'french'
p660
F6.32686478076786
sS'understanding'
p661
F6.32686478076786
sS'apis'
p662
F7.243155512642015
sS'slow'
p663
F7.243155512642015
sS'address'
p664
F6.5500083320820695
sS'frued'
p665
F7.243155512642015
sS'ahahahahahahah'
p666
F7.243155512642015
sS'wait'
p667
F5.4513960434139594
sS'box'
p668
F6.5500083320820695
sS'boy'
p669
F6.83769040453385
sS'studied'
p670
F6.83769040453385
sS'bot'
p671
F7.243155512642015
sS'eclecticism'
p672
F7.243155512642015
sS'exploitation'
p673
F7.243155512642015
sS'simultaneous'
p674
F7.243155512642015
sS'suggestion'
p675
F7.243155512642015
sS'studies'
p676
F7.243155512642015
sS'love'
p677
F4.80080847727281
sS'prefer'
p678
F5.990392544146647
sS'ipo'
p679
F6.83769040453385
sS'logical'
p680
F7.243155512642015
sS'flexibility'
p681
F7.243155512642015
sS'licensing'
p682
F7.243155512642015
sS'fake'
p683
F6.32686478076786
sS'bookmarks'
p684
F7.243155512642015
sS'sympathetic'
p685
F7.243155512642015
sS'libparserutils'
p686
F7.243155512642015
sS'working'
p687
F4.678206155180478
sS'impunity'
p688
F7.243155512642015
sS'positive'
p689
F6.5500083320820695
sS'angry'
p690
F6.83769040453385
sS'dude'
p691
F6.32686478076786
sS'gulags'
p692
F7.243155512642015
sS'insider'
p693
F7.243155512642015
sS'stenographers'
p694
F7.243155512642015
sS'wondering'
p695
F5.990392544146647
sS'ahhh'
p696
F6.32686478076786
sS'films'
p697
F7.243155512642015
sS'scope'
p698
F6.83769040453385
sS'theoretical'
p699
F7.243155512642015
sS'sharing'
p700
F5.990392544146647
sS'ooo'
p701
F6.5500083320820695
sS'apparent'
p702
F7.243155512642015
sS'ooh'
p703
F7.243155512642015
sS'refrain'
p704
F7.243155512642015
sS'downtown'
p705
F6.83769040453385
sS'oop'
p706
F6.5500083320820695
sS'indiegogo'
p707
F7.243155512642015
sS'effort'
p708
F6.83769040453385
sS'easiest'
p709
F7.243155512642015
sS'behalf'
p710
F7.243155512642015
sS'fly'
p711
F6.5500083320820695
sS'tokyo'
p712
F5.990392544146647
sS'originally'
p713
F6.32686478076786
sS'pretend'
p714
F7.243155512642015
sS'pshhh'
p715
F7.243155512642015
sS'making'
p716
F4.991863714035519
sS'arrive'
p717
F7.243155512642015
sS'bites'
p718
F7.243155512642015
sS'lords'
p719
F7.243155512642015
sS'crazy'
p720
F6.83769040453385
sS'locke'
p721
F7.243155512642015
sS'awesome'
p722
F3.7931679668104272
sS'fuck'
p723
F5.856861151522124
sS'agent'
p724
F7.243155512642015
sS'palantir'
p725
F7.243155512642015
sS'sample'
p726
F7.243155512642015
sS'incremental'
p727
F7.243155512642015
sS'hides'
p728
F7.243155512642015
sS'allowed'
p729
F6.83769040453385
sS'ping'
p730
F6.32686478076786
sS'microblogger'
p731
F7.243155512642015
sS'till'
p732
F6.144543223973905
sS'sunday'
p733
F5.73907811586574
sS'pure'
p734
F6.83769040453385
sS'nyc'
p735
F6.5500083320820695
sS'absolute'
p736
F7.243155512642015
sS'grok'
p737
F7.243155512642015
sS'staying'
p738
F6.83769040453385
sS'designer'
p739
F7.243155512642015
sS'critics'
p740
F7.243155512642015
sS'max'
p741
F7.243155512642015
sS'applications'
p742
F7.243155512642015
sS'mac'
p743
F6.144543223973905
sS'mad'
p744
F5.990392544146647
sS'improving'
p745
F7.243155512642015
sS'wikileaks'
p746
F6.32686478076786
sS'suck'
p747
F7.243155512642015
sS'guys'
p748
F6.144543223973905
sS'man'
p749
F5.045930935305795
sS'recruiters'
p750
F7.243155512642015
sS'natural'
p751
F7.243155512642015
sS'regressive'
p752
F7.243155512642015
sS'switch'
p753
F7.243155512642015
sS'jail'
p754
F7.243155512642015
sS'upvoting'
p755
F7.243155512642015
sS'pulled'
p756
F6.83769040453385
sS'talk'
p757
F4.352783754745849
sS'bush'
p758
F6.83769040453385
sS'shoes'
p759
F5.990392544146647
sS'pointed'
p760
F6.32686478076786
sS'rgso'
p761
F7.243155512642015
sS'kong'
p762
F5.990392544146647
sS'course'
p763
F5.297245363586701
sS'episodes'
p764
F7.243155512642015
sS'enigmail'
p765
F7.243155512642015
sS'cuts'
p766
F6.83769040453385
sS'argued'
p767
F7.243155512642015
sS'pointer'
p768
F7.243155512642015
sS'ttf'
p769
F7.243155512642015
sS'constituted'
p770
F7.243155512642015
sS'group'
p771
F6.144543223973905
sS'interesting'
p772
F5.4513960434139594
sS'torn'
p773
F6.83769040453385
sS'hot'
p774
F7.243155512642015
sS'coaching'
p775
F7.243155512642015
sS'suspicion'
p776
F7.243155512642015
sS'tweets'
p777
F5.856861151522124
sS'mail'
p778
F5.990392544146647
sS'main'
p779
F7.243155512642015
sS'decades'
p780
F7.243155512642015
sS'abusive'
p781
F7.243155512642015
sS'transparently'
p782
F7.243155512642015
sS'duckduckgo'
p783
F7.243155512642015
sS'views'
p784
F7.243155512642015
sS'matches'
p785
F7.243155512642015
sS'sooner'
p786
F7.243155512642015
sS'indigenous'
p787
F6.83769040453385
sS'records'
p788
F6.5500083320820695
sS'safari'
p789
F7.243155512642015
sS'servers'
p790
F6.144543223973905
sS'killed'
p791
F5.990392544146647
sS'matched'
p792
F7.243155512642015
sS'workload'
p793
F7.243155512642015
sS'didn'
p794
F4.175102577508397
sS'arrows'
p795
F7.243155512642015
sS'crypto'
p796
F5.856861151522124
sS'rock'
p797
F7.243155512642015
sS'amnesty'
p798
F7.243155512642015
sS'revere'
p799
F7.243155512642015
sS'turtle'
p800
F7.243155512642015
sS'square'
p801
F6.83769040453385
sS'gaming'
p802
F6.83769040453385
sS'revised'
p803
F7.243155512642015
sS'manifesto'
p804
F7.243155512642015
sS'sexually'
p805
F7.243155512642015
sS'girl'
p806
F7.243155512642015
sS'morning'
p807
F5.73907811586574
sS'troll'
p808
F6.83769040453385
sS'living'
p809
F6.32686478076786
sS'canvas'
p810
F7.243155512642015
sS'rioters'
p811
F7.243155512642015
sS'bday'
p812
F7.243155512642015
sS'seriously'
p813
F5.4513960434139594
sS'investigation'
p814
F7.243155512642015
sS'imperative'
p815
F7.243155512642015
sS'internet'
p816
F5.103089349145744
sS'correct'
p817
F6.32686478076786
sS'brooks'
p818
F7.243155512642015
sS'ajax'
p819
F7.243155512642015
sS'california'
p820
F6.5500083320820695
sS'englishsubtitles'
p821
F7.243155512642015
sS'spied'
p822
F7.243155512642015
sS'org'
p823
F7.243155512642015
sS'eliezer'
p824
F7.243155512642015
sS'uhhhhhhhh'
p825
F7.243155512642015
sS'pune'
p826
F5.990392544146647
sS'language'
p827
F5.297245363586701
sS'dunno'
p828
F5.103089349145744
sS'programming'
p829
F5.53840742040359
sS'thing'
p830
F4.678206155180478
sS'funky'
p831
F7.243155512642015
sS'puns'
p832
F7.243155512642015
sS'massive'
p833
F6.83769040453385
sS'routes'
p834
F7.243155512642015
sS'saving'
p835
F6.83769040453385
sS'spoken'
p836
F7.243155512642015
sS'lone'
p837
F6.5500083320820695
sS'gchq'
p838
F7.243155512642015
sS'mankiw'
p839
F7.243155512642015
sS'americans'
p840
F5.73907811586574
sS'long'
p841
F4.940570419647969
sS'spanish'
p842
F7.243155512642015
sS'vote'
p843
F6.5500083320820695
sS'sounds'
p844
F5.633717600207914
sS'throwaways'
p845
F7.243155512642015
sS'open'
p846
F4.604098183026756
sS'city'
p847
F6.5500083320820695
sS'meaningful'
p848
F7.243155512642015
sS'slept'
p849
F7.243155512642015
sS'indicate'
p850
F7.243155512642015
sS'gezi'
p851
F5.633717600207914
sS'params'
p852
F6.83769040453385
sS'conservati'
p853
F7.243155512642015
sS'typing'
p854
F6.83769040453385
sS'rebuttal'
p855
F7.243155512642015
sS'bits'
p856
F7.243155512642015
sS'uris'
p857
F6.83769040453385
sS'speaking'
p858
F6.144543223973905
sS'meme'
p859
F7.243155512642015
sS'mining'
p860
F7.243155512642015
sS'floppy'
p861
F7.243155512642015
sS'moscow'
p862
F6.5500083320820695
sS'continuous'
p863
F7.243155512642015
sS'broadcast'
p864
F6.83769040453385
sS'ridiculous'
p865
F6.83769040453385
sS'slashed'
p866
F7.243155512642015
sS'representing'
p867
F7.243155512642015
sS'third'
p868
F6.83769040453385
sS'encrypting'
p869
F7.243155512642015
sS'depressed'
p870
F7.243155512642015
sS'scraping'
p871
F7.243155512642015
sS'gotta'
p872
F5.990392544146647
sS'counters'
p873
F7.243155512642015
sS'future'
p874
F5.4513960434139594
sS'russia'
p875
F7.243155512642015
sS'illness'
p876
F6.83769040453385
sS'sao'
p877
F6.83769040453385
sS'san'
p878
F6.32686478076786
sS'nicer'
p879
F6.83769040453385
sS'hateoas'
p880
F7.243155512642015
sS'reallyfasttofititallin'
p881
F7.243155512642015
sS'argument'
p882
F5.4513960434139594
sS'alley'
p883
F7.243155512642015
sS'sad'
p884
F6.144543223973905
sS'lemote'
p885
F7.243155512642015
sS'conspiracy'
p886
F7.243155512642015
sS'allen'
p887
F6.5500083320820695
sS'pornography'
p888
F6.83769040453385
sS'efficient'
p889
F7.243155512642015
sS'answering'
p890
F7.243155512642015
sS'upgrading'
p891
F7.243155512642015
sS'shocked'
p892
F7.243155512642015
sS'note'
p893
F5.990392544146647
sS'omfg'
p894
F6.83769040453385
sS'squad'
p895
F7.243155512642015
sS'algorithms'
p896
F7.243155512642015
sS'vandals'
p897
F7.243155512642015
sS'yudkowsky'
p898
F7.243155512642015
sS'switching'
p899
F7.243155512642015
sS'formulas'
p900
F7.243155512642015
sS'pain'
p901
F6.83769040453385
sS'opposite'
p902
F6.5500083320820695
sS'track'
p903
F6.83769040453385
sS'rdrc'
p904
F5.297245363586701
sS'spewing'
p905
F7.243155512642015
sS'fails'
p906
F7.243155512642015
sS'paid'
p907
F5.53840742040359
sS'assault'
p908
F6.5500083320820695
sS'sheets'
p909
F6.83769040453385
sS'coveted'
p910
F7.243155512642015
sS'woooo'
p911
F7.243155512642015
sS'operate'
p912
F7.243155512642015
sS'average'
p913
F7.243155512642015
sS'drive'
p914
F6.83769040453385
sS'ways'
p915
F6.144543223973905
sS'maoish'
p916
F7.243155512642015
sS'redirected'
p917
F7.243155512642015
sS'laws'
p918
F6.5500083320820695
sS'shop'
p919
F6.83769040453385
sS'walking'
p920
F7.243155512642015
sS'shot'
p921
F6.32686478076786
sS'surplus'
p922
F7.243155512642015
sS'funsies'
p923
F7.243155512642015
sS'merit'
p924
F6.83769040453385
sS'cambodian'
p925
F7.243155512642015
sS'algpl'
p926
F7.243155512642015
sS'zed'
p927
F6.83769040453385
sS'liberation'
p928
F7.243155512642015
sS'going'
p929
F4.107661296712864
sS'black'
p930
F6.32686478076786
sS'outrage'
p931
F7.243155512642015
sS'chimpanzees'
p932
F7.243155512642015
sS'hungarian'
p933
F7.243155512642015
sS'employers'
p934
F7.243155512642015
sS'repo'
p935
F6.5500083320820695
sS'outlet'
p936
F7.243155512642015
sS'denials'
p937
F6.5500083320820695
sS'gem'
p938
F5.4513960434139594
sS'blind'
p939
F6.144543223973905
sS'busiest'
p940
F7.243155512642015
sS'borrow'
p941
F7.243155512642015
sS'awwwww'
p942
F7.243155512642015
sS'summary'
p943
F7.243155512642015
sS'miles'
p944
F7.243155512642015
sS'roger'
p945
F6.5500083320820695
sS'worries'
p946
F6.83769040453385
sS'wiki'
p947
F6.32686478076786
sS'kernel'
p948
F6.83769040453385
sS'lyft'
p949
F7.243155512642015
sS'calendar'
p950
F6.83769040453385
sS'wonder'
p951
F5.633717600207914
sS'satisfying'
p952
F7.243155512642015
sS'harvey'
p953
F7.243155512642015
sS'teeny'
p954
F7.243155512642015
sS'bureau'
p955
F7.243155512642015
sS'reading'
p956
F5.73907811586574
sS'jobs'
p957
F6.5500083320820695
sS'august'
p958
F7.243155512642015
sS'mime'
p959
F7.243155512642015
sS'doma'
p960
F7.243155512642015
sS'screen'
p961
F6.5500083320820695
sS'revealed'
p962
F7.243155512642015
sS'adept'
p963
F7.243155512642015
sS'awards'
p964
F7.243155512642015
sS'trolling'
p965
F6.83769040453385
sS'kapital'
p966
F7.243155512642015
sS'jfk'
p967
F5.990392544146647
sS'blasts'
p968
F7.243155512642015
sS'sketchy'
p969
F7.243155512642015
sS'loudly'
p970
F7.243155512642015
sS'patrons'
p971
F7.243155512642015
sS'spare'
p972
F7.243155512642015
sS'executables'
p973
F6.83769040453385
sS'cancer'
p974
F7.243155512642015
sS'hurts'
p975
F6.83769040453385
sS'mccain'
p976
F7.243155512642015
sS'grants'
p977
F7.243155512642015
sS'anti'
p978
F5.856861151522124
sS'denver'
p979
F7.243155512642015
sS'freak'
p980
F7.243155512642015
sS'math'
p981
F6.32686478076786
sS'considering'
p982
F5.990392544146647
sS'unusual'
p983
F7.243155512642015
sS'analogies'
p984
F7.243155512642015
sS'encryption'
p985
F6.144543223973905
sS'brainwashing'
p986
F7.243155512642015
sS'mark'
p987
F6.83769040453385
sS'borders'
p988
F7.243155512642015
sS'marx'
p989
F5.990392544146647
sS'shopping'
p990
F7.243155512642015
sS'gist'
p991
F7.243155512642015
sS'realtalk'
p992
F7.243155512642015
sS'offered'
p993
F7.243155512642015
sS'narita'
p994
F7.243155512642015
sS'laptops'
p995
F7.243155512642015
sS'photos'
p996
F6.32686478076786
sS'wake'
p997
F7.243155512642015
sS'hashtag'
p998
F7.243155512642015
sS'parasail'
p999
F7.243155512642015
sS'colluding'
p1000
F7.243155512642015
sS'sound'
p1001
F6.32686478076786
sS'stacked'
p1002
F7.243155512642015
sS'consultant'
p1003
F7.243155512642015
sS'worried'
p1004
F7.243155512642015
sS'single'
p1005
F6.144543223973905
sS'profiles'
p1006
F7.243155512642015
sS'compile'
p1007
F6.83769040453385
sS'situation'
p1008
F5.990392544146647
sS'bathrooms'
p1009
F6.83769040453385
sS'conferences'
p1010
F6.5500083320820695
sS'internets'
p1011
F7.243155512642015
sS'irresponsibleruby'
p1012
F6.83769040453385
sS'middle'
p1013
F6.32686478076786
sS'sudden'
p1014
F6.83769040453385
sS'nation'
p1015
F6.32686478076786
sS'engages'
p1016
F7.243155512642015
sS'everyday'
p1017
F7.243155512642015
sS'smalltalk'
p1018
F7.243155512642015
sS'binary'
p1019
F6.83769040453385
sS'pas'
p1020
F7.243155512642015
sS'ingrained'
p1021
F7.243155512642015
sS'pay'
p1022
F6.83769040453385
sS'ydiff'
p1023
F7.243155512642015
sS'compiling'
p1024
F7.243155512642015
sS'speech'
p1025
F5.990392544146647
sS'arguments'
p1026
F6.144543223973905
sS'vandalism'
p1027
F7.243155512642015
sS'clapping'
p1028
F7.243155512642015
sS'visually'
p1029
F6.83769040453385
sS'oil'
p1030
F7.243155512642015
sS'singapore'
p1031
F5.103089349145744
sS'liberals'
p1032
F6.32686478076786
sS'companion'
p1033
F7.243155512642015
sS'cheers'
p1034
F7.243155512642015
sS'annulled'
p1035
F7.243155512642015
sS'running'
p1036
F6.83769040453385
sS'advertisement'
p1037
F7.243155512642015
sS'totally'
p1038
F4.717426868333759
sS'livestreams'
p1039
F7.243155512642015
sS'tracking'
p1040
F6.32686478076786
sS'intermittent'
p1041
F7.243155512642015
sS'macro'
p1042
F7.243155512642015
sS'nothin'
p1043
F7.243155512642015
sS'substantive'
p1044
F7.243155512642015
sS'grumps'
p1045
F7.243155512642015
sS'amounts'
p1046
F7.243155512642015
sS'costs'
p1047
F7.243155512642015
sS'amazed'
p1048
F7.243155512642015
sS'summer'
p1049
F6.32686478076786
sS'malicious'
p1050
F7.243155512642015
sS'money'
p1051
F5.371353335740423
sS'rest'
p1052
F5.990392544146647
sS'aspect'
p1053
F7.243155512642015
sS'weekly'
p1054
F6.5500083320820695
sS'generator'
p1055
F7.243155512642015
sS'politicians'
p1056
F7.243155512642015
sS'pile'
p1057
F7.243155512642015
sS'ghostery'
p1058
F6.83769040453385
sS'structural'
p1059
F6.83769040453385
sS'rubygems'
p1060
F6.83769040453385
sS'sums'
p1061
F6.83769040453385
sS'dark'
p1062
F6.32686478076786
sS'snark'
p1063
F7.243155512642015
sS'mon'
p1064
F7.243155512642015
sS'mom'
p1065
F6.5500083320820695
sS'postal'
p1066
F7.243155512642015
sS'disappointed'
p1067
F7.243155512642015
sS'flavorings'
p1068
F7.243155512642015
sS'bravery'
p1069
F7.243155512642015
sS'mod'
p1070
F6.83769040453385
sS'sensational'
p1071
F7.243155512642015
sS'militarize'
p1072
F7.243155512642015
sS'identifying'
p1073
F7.243155512642015
sS'exchange'
p1074
F7.243155512642015
sS'serves'
p1075
F7.243155512642015
sS'alreadyare'
p1076
F7.243155512642015
sS'audience'
p1077
F7.243155512642015
sS'mcclatchy'
p1078
F7.243155512642015
sS'voluntarily'
p1079
F7.243155512642015
sS'passionate'
p1080
F7.243155512642015
sS'rubys'
p1081
F7.243155512642015
sS'livetweet'
p1082
F7.243155512642015
sS'images'
p1083
F6.83769040453385
sS'organizing'
p1084
F7.243155512642015
sS'thinks'
p1085
F6.83769040453385
sS'users'
p1086
F5.633717600207914
sS'gross'
p1087
F7.243155512642015
sS'poe'
p1088
F7.243155512642015
sS'ellis'
p1089
F7.243155512642015
sS'confirm'
p1090
F6.83769040453385
sS'noon'
p1091
F7.243155512642015
sS'poc'
p1092
F7.243155512642015
sS'critical'
p1093
F7.243155512642015
sS'expressing'
p1094
F7.243155512642015
sS'meloria'
p1095
F7.243155512642015
sS'moderate'
p1096
F7.243155512642015
sS'refer'
p1097
F7.243155512642015
sS'mainway'
p1098
F7.243155512642015
sS'scientific'
p1099
F6.83769040453385
sS'power'
p1100
F5.856861151522124
sS'seconds'
p1101
F7.243155512642015
sS'notable'
p1102
F7.243155512642015
sS'liners'
p1103
F7.243155512642015
sS'broken'
p1104
F6.5500083320820695
sS'refers'
p1105
F7.243155512642015
sS'released'
p1106
F6.144543223973905
sS'manufacturer'
p1107
F7.243155512642015
sS'package'
p1108
F7.243155512642015
sS'smear'
p1109
F7.243155512642015
sS'industry'
p1110
F5.990392544146647
sS'violence'
p1111
F6.83769040453385
sS'favorite'
p1112
F6.32686478076786
sS'acl'
p1113
F7.243155512642015
sS'microframework'
p1114
F7.243155512642015
sS'mixed'
p1115
F7.243155512642015
sS'road'
p1116
F7.243155512642015
sS'organizers'
p1117
F7.243155512642015
sS'lands'
p1118
F7.243155512642015
sS'image'
p1119
F7.243155512642015
sS'skilled'
p1120
F7.243155512642015
sS'references'
p1121
F7.243155512642015
sS'inbox'
p1122
F6.83769040453385
sS'parties'
p1123
F7.243155512642015
sS'financial'
p1124
F7.243155512642015
sS'technically'
p1125
F6.32686478076786
sS'totalitarian'
p1126
F7.243155512642015
sS'brute'
p1127
F7.243155512642015
sS'deadlines'
p1128
F7.243155512642015
sS'myths'
p1129
F7.243155512642015
sS'brazilian'
p1130
F7.243155512642015
sS'bubble'
p1131
F6.83769040453385
sS'complete'
p1132
F6.5500083320820695
sS'youreawesome'
p1133
F7.243155512642015
sS'allan'
p1134
F7.243155512642015
sS'wiping'
p1135
F7.243155512642015
sS'walkway'
p1136
F7.243155512642015
sS'texted'
p1137
F7.243155512642015
sS'shrugs'
p1138
F7.243155512642015
sS'downstairs'
p1139
F7.243155512642015
sS'pull'
p1140
F5.990392544146647
sS'rush'
p1141
F7.243155512642015
sS'monopoly'
p1142
F7.243155512642015
sS'ember'
p1143
F6.144543223973905
sS'xxxxxxx'
p1144
F7.243155512642015
sS'strawberry'
p1145
F7.243155512642015
sS'dirty'
p1146
F6.5500083320820695
sS'agree'
p1147
F5.990392544146647
sS'rust'
p1148
F4.64046582719763
sS'detailed'
p1149
F6.83769040453385
sS'leaked'
p1150
F6.5500083320820695
sS'videos'
p1151
F7.243155512642015
sS'youtube'
p1152
F7.243155512642015
sS'censor'
p1153
F7.243155512642015
sS'deep'
p1154
F6.83769040453385
sS'general'
p1155
F5.297245363586701
sS'leaker'
p1156
F6.83769040453385
sS'file'
p1157
F5.990392544146647
sS'formulation'
p1158
F7.243155512642015
sS'watched'
p1159
F6.5500083320820695
sS'horse'
p1160
F7.243155512642015
sS'syrian'
p1161
F7.243155512642015
sS'film'
p1162
F7.243155512642015
sS'fill'
p1163
F7.243155512642015
sS'istanbul'
p1164
F6.144543223973905
sS'personnel'
p1165
F7.243155512642015
sS'drivers'
p1166
F7.243155512642015
sS'enclosure'
p1167
F7.243155512642015
sS'field'
p1168
F7.243155512642015
sS'prism'
p1169
F4.80080847727281
sS'hey'
p1170
F5.297245363586701
sS'congress'
p1171
F7.243155512642015
sS'students'
p1172
F6.32686478076786
sS'maguhn'
p1173
F7.243155512642015
sS'sportsball'
p1174
F7.243155512642015
sS'snitch'
p1175
F7.243155512642015
sS'chris'
p1176
F7.243155512642015
sS'tricky'
p1177
F7.243155512642015
sS'regency'
p1178
F6.5500083320820695
sS'havana'
p1179
F7.243155512642015
sS'ucmj'
p1180
F7.243155512642015
sS'requires'
p1181
F7.243155512642015
sS'refutation'
p1182
F6.83769040453385
sS'spinmaster'
p1183
F7.243155512642015
sS'parallelism'
p1184
F7.243155512642015
sS'resembles'
p1185
F6.83769040453385
sS'starting'
p1186
F6.83769040453385
sS'original'
p1187
F6.83769040453385
sS'sco'
p1188
F7.243155512642015
sS'sci'
p1189
F7.243155512642015
sS'consider'
p1190
F6.32686478076786
sS'caused'
p1191
F6.83769040453385
sS'cooperative'
p1192
F7.243155512642015
sS'talks'
p1193
F6.83769040453385
sS'fixtures'
p1194
F7.243155512642015
sS'warband'
p1195
F7.243155512642015
sS'children'
p1196
F7.243155512642015
sS'taxicab'
p1197
F7.243155512642015
sS'ruby'
p1198
F4.004477060477634
sS'enjoying'
p1199
F6.83769040453385
sS'case'
p1200
F5.045930935305795
sS'appointment'
p1201
F6.83769040453385
sS'sitting'
p1202
F6.5500083320820695
sS'smh'
p1203
F7.243155512642015
sS'detention'
p1204
F7.243155512642015
sS'fall'
p1205
F7.243155512642015
sS'labor'
p1206
F5.856861151522124
sS'difference'
p1207
F5.990392544146647
sS'enjoyable'
p1208
F7.243155512642015
sS'alma'
p1209
F7.243155512642015
sS'cable'
p1210
F7.243155512642015
sS'shenanigans'
p1211
F7.243155512642015
sS'large'
p1212
F6.83769040453385
sS'small'
p1213
F6.5500083320820695
sS'titled'
p1214
F7.243155512642015
sS'lecturing'
p1215
F7.243155512642015
sS'perspective'
p1216
F6.5500083320820695
sS'pass'
p1217
F5.53840742040359
sS'anywho'
p1218
F7.243155512642015
sS'richard'
p1219
F7.243155512642015
sS'wrecked'
p1220
F7.243155512642015
sS'fucks'
p1221
F7.243155512642015
sS'abo'
p1222
F7.243155512642015
sS'abt'
p1223
F7.243155512642015
sS'undecided'
p1224
F7.243155512642015
sS'method'
p1225
F6.5500083320820695
sS'movement'
p1226
F6.32686478076786
sS'hasn'
p1227
F6.32686478076786
sS'full'
p1228
F5.73907811586574
sS'escaping'
p1229
F7.243155512642015
sS'component'
p1230
F6.5500083320820695
sS'twisters'
p1231
F7.243155512642015
sS'hours'
p1232
F4.891780255478537
sS'operating'
p1233
F7.243155512642015
sS'hmmmm'
p1234
F6.83769040453385
sS'outdone'
p1235
F7.243155512642015
sS'backlash'
p1236
F6.83769040453385
sS'publisher'
p1237
F7.243155512642015
sS'search'
p1238
F6.83769040453385
sS'bible'
p1239
F7.243155512642015
sS'compliance'
p1240
F7.243155512642015
sS'brutal'
p1241
F6.83769040453385
sS'airport'
p1242
F5.990392544146647
sS'periodic'
p1243
F7.243155512642015
sS'social'
p1244
F5.73907811586574
sS'action'
p1245
F5.633717600207914
sS'captialism'
p1246
F7.243155512642015
sS'skepticism'
p1247
F7.243155512642015
sS'authorize'
p1248
F7.243155512642015
sS'verbose'
p1249
F7.243155512642015
sS'gosu'
p1250
F7.243155512642015
sS'dissidents'
p1251
F7.243155512642015
sS'transit'
p1252
F7.243155512642015
sS'jruby'
p1253
F6.83769040453385
sS'coercion'
p1254
F5.990392544146647
sS'eye'
p1255
F6.5500083320820695
sS'comparing'
p1256
F7.243155512642015
sS'gorgeous'
p1257
F7.243155512642015
sS'paraphrased'
p1258
F7.243155512642015
sS'triumphant'
p1259
F7.243155512642015
sS'door'
p1260
F6.83769040453385
sS'staggering'
p1261
F7.243155512642015
sS'company'
p1262
F5.990392544146647
sS'mozilla'
p1263
F6.32686478076786
sS'ploughshares'
p1264
F7.243155512642015
sS'tested'
p1265
F7.243155512642015
sS'landed'
p1266
F5.990392544146647
sS'doom'
p1267
F7.243155512642015
sS'normative'
p1268
F7.243155512642015
sS'town'
p1269
F5.990392544146647
sS'keeping'
p1270
F7.243155512642015
sS'endpoint'
p1271
F7.243155512642015
sS'hour'
p1272
F5.73907811586574
sS'science'
p1273
F6.32686478076786
sS'sucks'
p1274
F5.73907811586574
sS'installing'
p1275
F6.144543223973905
sS'dev'
p1276
F5.990392544146647
sS'friendly'
p1277
F7.243155512642015
sS'autocomplete'
p1278
F7.243155512642015
sS'remain'
p1279
F7.243155512642015
sS'paragraph'
p1280
F6.83769040453385
sS'starts'
p1281
F6.5500083320820695
sS'male'
p1282
F5.856861151522124
sS'agentic'
p1283
F7.243155512642015
sS'def'
p1284
F7.243155512642015
sS'pick'
p1285
F6.144543223973905
sS'beautiful'
p1286
F6.83769040453385
sS'compare'
p1287
F7.243155512642015
sS'stated'
p1288
F7.243155512642015
sS'share'
p1289
F5.990392544146647
sS'accept'
p1290
F7.243155512642015
sS'stratsys'
p1291
F7.243155512642015
sS'states'
p1292
F5.4513960434139594
sS'biden'
p1293
F7.243155512642015
sS'minimum'
p1294
F7.243155512642015
sS'numbers'
p1295
F7.243155512642015
sS'purchased'
p1296
F7.243155512642015
sS'sense'
p1297
F5.73907811586574
sS'ist'
p1298
F7.243155512642015
sS'huge'
p1299
F6.32686478076786
sS'awkward'
p1300
F7.243155512642015
sS'archive'
p1301
F6.83769040453385
sS'comfort'
p1302
F6.83769040453385
sS'pressing'
p1303
F7.243155512642015
sS'istiklal'
p1304
F7.243155512642015
sS'mutable'
p1305
F7.243155512642015
sS'css'
p1306
F6.32686478076786
sS'intended'
p1307
F6.83769040453385
sS'greenwald'
p1308
F7.243155512642015
sS'plane'
p1309
F5.53840742040359
sS'director'
p1310
F6.83769040453385
sS'coming'
p1311
F5.856861151522124
sS'ethics'
p1312
F6.5500083320820695
sS'response'
p1313
F5.856861151522124
sS'github'
p1314
F5.73907811586574
sS'allocators'
p1315
F7.243155512642015
sS'curbed'
p1316
F7.243155512642015
sS'register'
p1317
F7.243155512642015
sS'broadcasting'
p1318
F7.243155512642015
sS'responsibility'
p1319
F7.243155512642015
sS'fundamental'
p1320
F6.83769040453385
sS'playing'
p1321
F6.32686478076786
sS'krypt'
p1322
F7.243155512642015
sS'rounded'
p1323
F7.243155512642015
sS'rubywarrior'
p1324
F7.243155512642015
sS'incessantly'
p1325
F7.243155512642015
sS'bowl'
p1326
F7.243155512642015
sS'trade'
p1327
F6.83769040453385
sS'attitude'
p1328
F7.243155512642015
sS'industrial'
p1329
F7.243155512642015
sS'signs'
p1330
F7.243155512642015
sS'existence'
p1331
F6.5500083320820695
sS'sequels'
p1332
F7.243155512642015
sS'suffer'
p1333
F7.243155512642015
sS'bummed'
p1334
F6.83769040453385
sS'late'
p1335
F6.5500083320820695
sS'reuters'
p1336
F7.243155512642015
sS'bummer'
p1337
F5.297245363586701
sS'good'
p1338
F3.4254431866851096
sS'seeking'
p1339
F7.243155512642015
sS'uhm'
p1340
F7.243155512642015
sS'uhh'
p1341
F6.83769040453385
sS'primary'
p1342
F6.32686478076786
sS'compound'
p1343
F7.243155512642015
sS'struggling'
p1344
F7.243155512642015
sS'sucked'
p1345
F7.243155512642015
sS'easily'
p1346
F6.83769040453385
sS'drake'
p1347
F7.243155512642015
sS'denny'
p1348
F7.243155512642015
sS'habits'
p1349
F6.83769040453385
sS'uploads'
p1350
F7.243155512642015
sS'repeating'
p1351
F6.83769040453385
sS'notes'
p1352
F7.243155512642015
sS'week'
p1353
F4.80080847727281
sS'harm'
p1354
F6.5500083320820695
sS'fisa'
p1355
F6.83769040453385
sS'mental'
p1356
F7.243155512642015
sS'reference'
p1357
F7.243155512642015
sS'house'
p1358
F6.32686478076786
sS'energy'
p1359
F7.243155512642015
sS'hard'
p1360
F4.678206155180478
sS'idea'
p1361
F4.80080847727281
sS'fewer'
p1362
F6.83769040453385
sS'advertisers'
p1363
F7.243155512642015
sS'portland'
p1364
F6.83769040453385
sS'insurance'
p1365
F6.32686478076786
sS'funding'
p1366
F6.83769040453385
sS'missed'
p1367
F5.856861151522124
sS'acting'
p1368
F7.243155512642015
sS'print'
p1369
F6.83769040453385
sS'sbs'
p1370
F7.243155512642015
sS'belief'
p1371
F7.243155512642015
sS'pathetic'
p1372
F7.243155512642015
sS'commits'
p1373
F7.243155512642015
sS'motherfucker'
p1374
F7.243155512642015
sS'asymmetrical'
p1375
F7.243155512642015
sS'ness'
p1376
F6.83769040453385
sS'members'
p1377
F6.83769040453385
sS'imagine'
p1378
F6.32686478076786
sS'backed'
p1379
F7.243155512642015
sS'definition'
p1380
F6.144543223973905
sS'pairs'
p1381
F7.243155512642015
sS'misogyny'
p1382
F6.83769040453385
sS'retained'
p1383
F7.243155512642015
sS'reinforces'
p1384
F7.243155512642015
sS'computers'
p1385
F6.144543223973905
sS'offsite'
p1386
F6.83769040453385
sS'audacity'
p1387
F7.243155512642015
sS'tos'
p1388
F7.243155512642015
sS'unmanned'
p1389
F7.243155512642015
sS'major'
p1390
F6.5500083320820695
sS'number'
p1391
F6.83769040453385
sS'dong'
p1392
F7.243155512642015
sS'wages'
p1393
F7.243155512642015
sS'stage'
p1394
F6.32686478076786
sS'guess'
p1395
F5.297245363586701
sS'heads'
p1396
F7.243155512642015
sS'leverage'
p1397
F7.243155512642015
sS'jet'
p1398
F7.243155512642015
sS'introduction'
p1399
F6.83769040453385
sS'checkpoint'
p1400
F7.243155512642015
sS'assumption'
p1401
F7.243155512642015
sS'direngezipark'
p1402
F7.243155512642015
sS'jen'
p1403
F7.243155512642015
sS'uuugh'
p1404
F7.243155512642015
sS'relationship'
p1405
F6.83769040453385
sS'park'
p1406
F5.856861151522124
sS'livestream'
p1407
F7.243155512642015
sS'doctors'
p1408
F7.243155512642015
sS'trolls'
p1409
F7.243155512642015
sS'obama'
p1410
F5.633717600207914
sS'condolences'
p1411
F7.243155512642015
sS'plateaus'
p1412
F7.243155512642015
sS'freud'
p1413
F7.243155512642015
sS'defends'
p1414
F7.243155512642015
sS'headers'
p1415
F6.83769040453385
sS'marriage'
p1416
F6.144543223973905
sS'supposed'
p1417
F6.32686478076786
sS'derailing'
p1418
F7.243155512642015
sS'iraqis'
p1419
F7.243155512642015
sS'taxis'
p1420
F7.243155512642015
sS'declare'
p1421
F7.243155512642015
sS'interactive'
p1422
F7.243155512642015
sS'swerve'
p1423
F7.243155512642015
sS'ages'
p1424
F7.243155512642015
sS'guarding'
p1425
F7.243155512642015
sS'megaupload'
p1426
F7.243155512642015
sS'graffiti'
p1427
F6.83769040453385
sS'ahahah'
p1428
F7.243155512642015
sS'meltdown'
p1429
F7.243155512642015
sS'ditched'
p1430
F7.243155512642015
sS'built'
p1431
F6.32686478076786
sS'puas'
p1432
F7.243155512642015
sS'vulnerabilities'
p1433
F7.243155512642015
sS'loooong'
p1434
F7.243155512642015
sS'proggit'
p1435
F7.243155512642015
sS'described'
p1436
F6.83769040453385
sS'articles'
p1437
F6.83769040453385
sS'caesar'
p1438
F7.243155512642015
sS'build'
p1439
F5.4513960434139594
sS'signup'
p1440
F7.243155512642015
sS'transparent'
p1441
F7.243155512642015
sS'play'
p1442
F5.4513960434139594
sS'vnd'
p1443
F7.243155512642015
sS'programmers'
p1444
F7.243155512642015
sS'chars'
p1445
F7.243155512642015
sS'chart'
p1446
F7.243155512642015
sS'yawn'
p1447
F7.243155512642015
sS'plan'
p1448
F5.856861151522124
sS'services'
p1449
F7.243155512642015
sS'accepting'
p1450
F7.243155512642015
sS'extremely'
p1451
F7.243155512642015
sS'revolutionary'
p1452
F7.243155512642015
sS'thcentury'
p1453
F7.243155512642015
sS'cover'
p1454
F7.243155512642015
sS'actionable'
p1455
F7.243155512642015
sS'barred'
p1456
F7.243155512642015
sS'ccc'
p1457
F7.243155512642015
sS'weigh'
p1458
F7.243155512642015
sS'attacking'
p1459
F7.243155512642015
sS'joining'
p1460
F7.243155512642015
sS'thomas'
p1461
F7.243155512642015
sS'ugh'
p1462
F6.5500083320820695
sS'gold'
p1463
F6.83769040453385
sS'gates'
p1464
F7.243155512642015
sS'blended'
p1465
F7.243155512642015
sS'gitmo'
p1466
F6.83769040453385
sS'session'
p1467
F6.5500083320820695
sS'carefully'
p1468
F7.243155512642015
sS'fine'
p1469
F5.53840742040359
sS'find'
p1470
F4.940570419647969
sS'occupation'
p1471
F6.83769040453385
sS'giant'
p1472
F7.243155512642015
sS'ruin'
p1473
F7.243155512642015
sS'distributed'
p1474
F7.243155512642015
sS'astroturfing'
p1475
F7.243155512642015
sS'failed'
p1476
F6.5500083320820695
sS'solitary'
p1477
F7.243155512642015
sS'factor'
p1478
F7.243155512642015
sS'merged'
p1479
F7.243155512642015
sS'notation'
p1480
F7.243155512642015
sS'express'
p1481
F7.243155512642015
sS'lolno'
p1482
F7.243155512642015
sS'gendered'
p1483
F6.32686478076786
sS'preparing'
p1484
F7.243155512642015
sS'politicised'
p1485
F7.243155512642015
sS'compass'
p1486
F6.83769040453385
sS'banner'
p1487
F7.243155512642015
sS'blogging'
p1488
F6.5500083320820695
sS'enemy'
p1489
F6.32686478076786
sS'frankly'
p1490
F7.243155512642015
sS'sleeve'
p1491
F7.243155512642015
sS'cry'
p1492
F6.83769040453385
sS'terrifically'
p1493
F7.243155512642015
sS'common'
p1494
F6.83769040453385
sS'cease'
p1495
F7.243155512642015
sS'archaeologist'
p1496
F7.243155512642015
sS'cri'
p1497
F7.243155512642015
sS'approaching'
p1498
F7.243155512642015
sS'set'
p1499
F5.4513960434139594
sS'creator'
p1500
F7.243155512642015
sS'activists'
p1501
F7.243155512642015
sS'startup'
p1502
F5.990392544146647
sS'potent'
p1503
F7.243155512642015
sS'sex'
p1504
F6.32686478076786
sS'individual'
p1505
F6.83769040453385
sS'retweet'
p1506
F7.243155512642015
sS'nsls'
p1507
F7.243155512642015
sS'expert'
p1508
F6.83769040453385
sS'deactivate'
p1509
F7.243155512642015
sS'currently'
p1510
F5.4513960434139594
sS'heading'
p1511
F7.243155512642015
sS'fans'
p1512
F6.83769040453385
sS'myriad'
p1513
F7.243155512642015
sS'readme'
p1514
F6.83769040453385
sS'errored'
p1515
F7.243155512642015
sS'dilutes'
p1516
F7.243155512642015
sS'nope'
p1517
F4.569006863215486
sS'compliment'
p1518
F7.243155512642015
sS'knowing'
p1519
F6.5500083320820695
sS'queers'
p1520
F7.243155512642015
sS'responses'
p1521
F6.83769040453385
sS'targeted'
p1522
F6.83769040453385
sS'javascript'
p1523
F5.990392544146647
sS'aaaaamazing'
p1524
F7.243155512642015
sS'interface'
p1525
F7.243155512642015
sS'guantanamo'
p1526
F7.243155512642015
sS'encapsulate'
p1527
F7.243155512642015
sS'pissed'
p1528
F7.243155512642015
sS'dualism'
p1529
F7.243155512642015
sS'pdx'
p1530
F6.83769040453385
sS'tipping'
p1531
F7.243155512642015
sS'barely'
p1532
F6.144543223973905
sS'foreign'
p1533
F7.243155512642015
sS'libcss'
p1534
F7.243155512642015
sS'imessages'
p1535
F7.243155512642015
sS'connection'
p1536
F6.5500083320820695
sS'intercept'
p1537
F7.243155512642015
sS'load'
p1538
F6.83769040453385
sS'markdown'
p1539
F6.83769040453385
sS'elaborating'
p1540
F7.243155512642015
sS'drunk'
p1541
F6.83769040453385
sS'simple'
p1542
F5.990392544146647
sS'acted'
p1543
F7.243155512642015
sS'community'
p1544
F5.856861151522124
sS'coincidence'
p1545
F7.243155512642015
sS'biiiiig'
p1546
F7.243155512642015
sS'simply'
p1547
F7.243155512642015
sS'improvement'
p1548
F7.243155512642015
sS'expensive'
p1549
F7.243155512642015
sS'headaches'
p1550
F7.243155512642015
sS'worthless'
p1551
F7.243155512642015
sS'publishing'
p1552
F6.83769040453385
sS'monthly'
p1553
F7.243155512642015
sS'create'
p1554
F6.5500083320820695
sS'creativity'
p1555
F6.83769040453385
sS'convicted'
p1556
F7.243155512642015
sS'secret'
p1557
F5.990392544146647
sS'citations'
p1558
F7.243155512642015
sS'collaborator'
p1559
F7.243155512642015
sS'ahhhh'
p1560
F7.243155512642015
sS'treatment'
p1561
F7.243155512642015
sS'firm'
p1562
F6.83769040453385
sS'vans'
p1563
F7.243155512642015
sS'hikes'
p1564
F7.243155512642015
sS'gay'
p1565
F5.990392544146647
sS'fire'
p1566
F6.83769040453385
sS'gas'
p1567
F6.5500083320820695
sS'eosadler'
p1568
F7.243155512642015
sS'bieda'
p1569
F7.243155512642015
sS'fund'
p1570
F7.243155512642015
sS'understand'
p1571
F5.856861151522124
sS'representative'
p1572
F7.243155512642015
sS'prices'
p1573
F7.243155512642015
sS'towns'
p1574
F7.243155512642015
sS'gab'
p1575
F7.243155512642015
sS'nrt'
p1576
F6.83769040453385
sS'restatements'
p1577
F7.243155512642015
sS'handling'
p1578
F6.5500083320820695
sS'solid'
p1579
F6.83769040453385
sS'judicial'
p1580
F7.243155512642015
sS'straight'
p1581
F6.32686478076786
sS'bill'
p1582
F5.990392544146647
sS'convo'
p1583
F7.243155512642015
sS'budget'
p1584
F7.243155512642015
sS'receive'
p1585
F6.32686478076786
sS'mlp'
p1586
F7.243155512642015
sS'optimization'
p1587
F7.243155512642015
sS'cagey'
p1588
F7.243155512642015
sS'error'
p1589
F7.243155512642015
sS'fun'
p1590
F5.4513960434139594
sS'real'
p1591
F5.22825249209975
sS'binding'
p1592
F7.243155512642015
sS'limit'
p1593
F7.243155512642015
sS'ding'
p1594
F7.243155512642015
sS'funny'
p1595
F6.5500083320820695
sS'fallacies'
p1596
F7.243155512642015
sS'rules'
p1597
F6.5500083320820695
sS'discourse'
p1598
F7.243155512642015
sS'spammy'
p1599
F7.243155512642015
sS'day'
p1600
F4.717426868333759
sS'development'
p1601
F6.32686478076786
sS'keys'
p1602
F6.83769040453385
sS'comprehensive'
p1603
F7.243155512642015
sS'yesterday'
p1604
F6.5500083320820695
sS'alert'
p1605
F6.83769040453385
sS'moment'
p1606
F5.633717600207914
sS'levels'
p1607
F6.83769040453385
sS'purpose'
p1608
F7.243155512642015
sS'infamous'
p1609
F7.243155512642015
sS'kno'
p1610
F7.243155512642015
sS'dystopian'
p1611
F6.83769040453385
sS'surrogate'
p1612
F7.243155512642015
sS'person'
p1613
F5.633717600207914
sS'flags'
p1614
F7.243155512642015
sS'nordic'
p1615
F7.243155512642015
sS'organization'
p1616
F7.243155512642015
sS'spend'
p1617
F6.5500083320820695
sS'hastings'
p1618
F7.243155512642015
sS'listening'
p1619
F6.144543223973905
sS'arrests'
p1620
F6.83769040453385
sS'shape'
p1621
F7.243155512642015
sS'alternative'
p1622
F6.83769040453385
sS'injuries'
p1623
F6.83769040453385
sS'addresses'
p1624
F6.83769040453385
sS'punted'
p1625
F7.243155512642015
sS'cut'
p1626
F6.83769040453385
sS'veganism'
p1627
F7.243155512642015
sS'cup'
p1628
F7.243155512642015
sS'hated'
p1629
F7.243155512642015
sS'admission'
p1630
F7.243155512642015
sS'alternate'
p1631
F6.5500083320820695
sS'advertisements'
p1632
F7.243155512642015
sS'source'
p1633
F4.64046582719763
sS'parents'
p1634
F6.83769040453385
sS'dare'
p1635
F7.243155512642015
sS'excited'
p1636
F5.633717600207914
sS'surprised'
p1637
F7.243155512642015
sS'bin'
p1638
F6.5500083320820695
sS'shove'
p1639
F6.83769040453385
sS'victims'
p1640
F7.243155512642015
sS'adversaries'
p1641
F7.243155512642015
sS'qless'
p1642
F7.243155512642015
sS'big'
p1643
F5.371353335740423
sS'couple'
p1644
F6.32686478076786
sS'instructors'
p1645
F7.243155512642015
sS'shitty'
p1646
F6.5500083320820695
sS'suffering'
p1647
F7.243155512642015
sS'tsa'
p1648
F5.990392544146647
sS'extricate'
p1649
F7.243155512642015
sS'foreigners'
p1650
F7.243155512642015
sS'bit'
p1651
F4.845260239843644
sS'salutes'
p1652
F7.243155512642015
sS'projects'
p1653
F6.32686478076786
sS'formal'
p1654
F7.243155512642015
sS'stallings'
p1655
F7.243155512642015
sS'semi'
p1656
F7.243155512642015
sS'consensus'
p1657
F7.243155512642015
sS'communications'
p1658
F6.83769040453385
sS'continue'
p1659
F7.243155512642015
sS'stylish'
p1660
F7.243155512642015
sS'disorder'
p1661
F7.243155512642015
sS'rubyconf'
p1662
F6.83769040453385
sS'google'
p1663
F4.991863714035519
sS'methods'
p1664
F6.32686478076786
sS'senate'
p1665
F7.243155512642015
sS'goddamn'
p1666
F6.83769040453385
sS'wip'
p1667
F6.83769040453385
sS'segfaults'
p1668
F7.243155512642015
sS'equivalent'
p1669
F7.243155512642015
sS'examples'
p1670
F7.243155512642015
sS'curious'
p1671
F7.243155512642015
sS'pronounced'
p1672
F7.243155512642015
sS'scale'
p1673
F6.83769040453385
sS'scala'
p1674
F6.83769040453385
sS'decision'
p1675
F7.243155512642015
sS'proficient'
p1676
F7.243155512642015
sS'integration'
p1677
F6.83769040453385
sS'meade'
p1678
F7.243155512642015
sS'religion'
p1679
F7.243155512642015
sS'connecting'
p1680
F7.243155512642015
sS'bogus'
p1681
F7.243155512642015
sS'prosecuted'
p1682
F7.243155512642015
sS'epic'
p1683
F6.5500083320820695
sS'ronpaul'
p1684
F7.243155512642015
sS'agreement'
p1685
F6.83769040453385
sS'feelings'
p1686
F6.83769040453385
sS'santa'
p1687
F5.990392544146647
sS'relating'
p1688
F6.83769040453385
sS'dictated'
p1689
F7.243155512642015
sS'odonnell'
p1690
F7.243155512642015
sS'deserved'
p1691
F6.5500083320820695
sS'chomsky'
p1692
F7.243155512642015
sS'drama'
p1693
F7.243155512642015
sS'extensions'
p1694
F7.243155512642015
sS'pediatrician'
p1695
F7.243155512642015
sS'hahahah'
p1696
F6.83769040453385
sS'repair'
p1697
F7.243155512642015
sS'jimmy'
p1698
F7.243155512642015
sS'garbage'
p1699
F6.5500083320820695
sS'terrorists'
p1700
F6.83769040453385
sS'nsa'
p1701
F3.8932514253674095
sS'aliens'
p1702
F7.243155512642015
sS'framed'
p1703
F7.243155512642015
sS'bsd'
p1704
F6.5500083320820695
sS'spam'
p1705
F7.243155512642015
sS'spending'
p1706
F7.243155512642015
sS'submit'
p1707
F5.990392544146647
sS'custom'
p1708
F7.243155512642015
sS'occupy'
p1709
F5.633717600207914
sS'forward'
p1710
F6.32686478076786
sS'bored'
p1711
F6.83769040453385
sS'opens'
p1712
F7.243155512642015
sS'underlines'
p1713
F7.243155512642015
sS'poster'
p1714
F6.83769040453385
sS'retina'
p1715
F6.5500083320820695
sS'immigration'
p1716
F7.243155512642015
sS'boys'
p1717
F7.243155512642015
sS'link'
p1718
F5.045930935305795
sS'hopes'
p1719
F7.243155512642015
sS'episode'
p1720
F6.5500083320820695
sS'posted'
p1721
F6.5500083320820695
sS'cia'
p1722
F6.5500083320820695
sS'biggie'
p1723
F7.243155512642015
sS'cis'
p1724
F7.243155512642015
sS'mature'
p1725
F6.5500083320820695
sS'planes'
p1726
F7.243155512642015
sS'positivism'
p1727
F6.5500083320820695
sS'storing'
p1728
F7.243155512642015
sS'impostor'
p1729
F7.243155512642015
sS'aerial'
p1730
F7.243155512642015
sS'flow'
p1731
F7.243155512642015
sS'deadliest'
p1732
F7.243155512642015
sS'globally'
p1733
F7.243155512642015
sS'engineering'
p1734
F6.83769040453385
sS'diverse'
p1735
F6.83769040453385
sS'chat'
p1736
F7.243155512642015
sS'parsed'
p1737
F7.243155512642015
sS'defines'
p1738
F7.243155512642015
sS'brethren'
p1739
F7.243155512642015
sS'fixing'
p1740
F6.83769040453385
sS'invalid'
p1741
F7.243155512642015
sS'plugged'
p1742
F7.243155512642015
sS'occasional'
p1743
F7.243155512642015
sS'excuses'
p1744
F7.243155512642015
sS'coded'
p1745
F7.243155512642015
sS'scraps'
p1746
F7.243155512642015
sS'explaining'
p1747
F7.243155512642015
sS'airsegment'
p1748
F7.243155512642015
sS'viral'
p1749
F6.83769040453385
sS'favourite'
p1750
F7.243155512642015
sS'sided'
p1751
F7.243155512642015
sS'prosecution'
p1752
F7.243155512642015
sS'gulag'
p1753
F7.243155512642015
sS'oedipus'
p1754
F7.243155512642015
sS'ryanb'
p1755
F7.243155512642015
sS'unenforceable'
p1756
F7.243155512642015
sS'desert'
p1757
F7.243155512642015
sS'ago'
p1758
F5.103089349145744
sS'uhhhhh'
p1759
F7.243155512642015
sS'lane'
p1760
F7.243155512642015
sS'land'
p1761
F6.144543223973905
sS'implies'
p1762
F7.243155512642015
sS'algorithm'
p1763
F7.243155512642015
sS'reasoned'
p1764
F7.243155512642015
sS'soma'
p1765
F7.243155512642015
sS'age'
p1766
F7.243155512642015
sS'vehicles'
p1767
F7.243155512642015
sS'walked'
p1768
F6.83769040453385
sS'rubyfriends'
p1769
F6.83769040453385
sS'failures'
p1770
F6.83769040453385
sS'hello'
p1771
F5.856861151522124
sS'code'
p1772
F4.502315488716813
sS'jason'
p1773
F6.83769040453385
sS'illustrates'
p1774
F7.243155512642015
sS'rants'
p1775
F7.243155512642015
sS'laziness'
p1776
F7.243155512642015
sS'existing'
p1777
F6.5500083320820695
sS'totes'
p1778
F7.243155512642015
sS'broader'
p1779
F7.243155512642015
sS'trampling'
p1780
F7.243155512642015
sS'tearing'
p1781
F7.243155512642015
sS'turkish'
p1782
F6.144543223973905
sS'concerned'
p1783
F6.5500083320820695
sS'young'
p1784
F6.5500083320820695
sS'send'
p1785
F6.144543223973905
sS'literary'
p1786
F7.243155512642015
sS'rbates'
p1787
F7.243155512642015
sS'citing'
p1788
F6.83769040453385
sS'helps'
p1789
F6.83769040453385
sS'officials'
p1790
F7.243155512642015
sS'dislike'
p1791
F6.83769040453385
sS'resources'
p1792
F6.5500083320820695
sS'random'
p1793
F6.83769040453385
sS'continues'
p1794
F7.243155512642015
sS'pagination'
p1795
F7.243155512642015
sS'ancaps'
p1796
F7.243155512642015
sS'putting'
p1797
F6.83769040453385
sS'cancan'
p1798
F7.243155512642015
sS'mixing'
p1799
F7.243155512642015
sS'subreddit'
p1800
F7.243155512642015
sS'continued'
p1801
F6.83769040453385
sS'entire'
p1802
F5.990392544146647
sS'respectful'
p1803
F7.243155512642015
sS'anothe'
p1804
F7.243155512642015
sS'shock'
p1805
F7.243155512642015
sS'eve'
p1806
F7.243155512642015
sS'populist'
p1807
F7.243155512642015
sS'race'
p1808
F7.243155512642015
sS'ahahahaha'
p1809
F6.32686478076786
sS'imgur'
p1810
F7.243155512642015
sS'comapnies'
p1811
F7.243155512642015
sS'elisp'
p1812
F7.243155512642015
sS'imply'
p1813
F6.83769040453385
sS'video'
p1814
F5.633717600207914
sS'earth'
p1815
F6.83769040453385
sS'licenses'
p1816
F6.5500083320820695
sS'odd'
p1817
F6.83769040453385
sS'rubyonrails'
p1818
F7.243155512642015
sS'chicago'
p1819
F6.5500083320820695
sS'asap'
p1820
F7.243155512642015
sS'expressed'
p1821
F7.243155512642015
sS'hereditary'
p1822
F7.243155512642015
sS'access'
p1823
F5.990392544146647
sS'indian'
p1824
F7.243155512642015
sS'archbang'
p1825
F7.243155512642015
sS'ahhhhh'
p1826
F7.243155512642015
sS'indef'
p1827
F7.243155512642015
sS'body'
p1828
F6.5500083320820695
sS'tsla'
p1829
F7.243155512642015
sS'leg'
p1830
F6.83769040453385
sS'instrumentalize'
p1831
F7.243155512642015
sS'gilles'
p1832
F7.243155512642015
sS'deleuze'
p1833
F5.856861151522124
sS'slogans'
p1834
F7.243155512642015
sS'objects'
p1835
F7.243155512642015
sS'poverty'
p1836
F6.5500083320820695
sS'sink'
p1837
F7.243155512642015
sS'ubuntu'
p1838
F6.83769040453385
sS'safer'
p1839
F6.83769040453385
sS'invented'
p1840
F7.243155512642015
sS'extreme'
p1841
F7.243155512642015
sS'great'
p1842
F4.198633074918591
sS'technical'
p1843
F6.83769040453385
sS'involved'
p1844
F7.243155512642015
sS'popcorn'
p1845
F7.243155512642015
sS'opinion'
p1846
F5.856861151522124
sS'weekends'
p1847
F7.243155512642015
sS'involves'
p1848
F7.243155512642015
sS'trickie'
p1849
F7.243155512642015
sS'named'
p1850
F6.83769040453385
sS'firefox'
p1851
F6.5500083320820695
sS'presidents'
p1852
F7.243155512642015
sS'casualty'
p1853
F7.243155512642015
sS'private'
p1854
F5.371353335740423
sS'names'
p1855
F7.243155512642015
sS'composes'
p1856
F7.243155512642015
sS'scandal'
p1857
F6.5500083320820695
sS'standing'
p1858
F6.83769040453385
sS'confidence'
p1859
F7.243155512642015
sS'taxiing'
p1860
F7.243155512642015
sS'waaaay'
p1861
F6.83769040453385
sS'illegal'
p1862
F6.83769040453385
sS'apprecaited'
p1863
F7.243155512642015
sS'nobel'
p1864
F7.243155512642015
sS'doubt'
p1865
F6.83769040453385
sS'pfc'
p1866
F6.83769040453385
sS'datacenter'
p1867
F7.243155512642015
sS'trail'
p1868
F7.243155512642015
sS'train'
p1869
F6.83769040453385
sS'labelled'
p1870
F7.243155512642015
sS'baby'
p1871
F7.243155512642015
sS'nypd'
p1872
F6.5500083320820695
sS'account'
p1873
F5.53840742040359
sS'balls'
p1874
F7.243155512642015
sS'prompts'
p1875
F7.243155512642015
sS'sabi'
p1876
F7.243155512642015
sS'obvious'
p1877
F6.83769040453385
sS'island'
p1878
F7.243155512642015
sS'closing'
p1879
F7.243155512642015
sS'reserved'
p1880
F6.83769040453385
sS'patron'
p1881
F7.243155512642015
sS'process'
p1882
F6.144543223973905
sS'high'
p1883
F6.32686478076786
sS'effectively'
p1884
F6.83769040453385
sS'martyr'
p1885
F7.243155512642015
sS'contempt'
p1886
F6.83769040453385
sS'paleo'
p1887
F7.243155512642015
sS'varied'
p1888
F7.243155512642015
sS'democracy'
p1889
F5.990392544146647
sS'lame'
p1890
F7.243155512642015
sS'namespace'
p1891
F7.243155512642015
sS'lamo'
p1892
F6.83769040453385
sS'attachment'
p1893
F7.243155512642015
sS'visas'
p1894
F7.243155512642015
sS'stock'
p1895
F7.243155512642015
sS'profile'
p1896
F7.243155512642015
sS'blocks'
p1897
F7.243155512642015
sS'gentoo'
p1898
F7.243155512642015
sS'singular'
p1899
F7.243155512642015
sS'kickstarter'
p1900
F6.32686478076786
sS'philosophy'
p1901
F6.144543223973905
sS'educational'
p1902
F7.243155512642015
sS'collection'
p1903
F6.32686478076786
sS'bothered'
p1904
F7.243155512642015
sS'tattoo'
p1905
F7.243155512642015
sS'pigs'
p1906
F7.243155512642015
sS'legality'
p1907
F7.243155512642015
sS'fits'
p1908
F6.5500083320820695
sS'coast'
p1909
F7.243155512642015
sS'solidarity'
p1910
F7.243155512642015
sS'criticized'
p1911
F7.243155512642015
sS'realized'
p1912
F7.243155512642015
sS'physical'
p1913
F7.243155512642015
sS'counter'
p1914
F7.243155512642015
sS'lines'
p1915
F6.83769040453385
sS'shutting'
p1916
F7.243155512642015
sS'acquitted'
p1917
F7.243155512642015
sS'chief'
p1918
F7.243155512642015
sS'allow'
p1919
F7.243155512642015
sS'intellectuals'
p1920
F7.243155512642015
sS'volunteers'
p1921
F7.243155512642015
sS'daaaaaaaamn'
p1922
F7.243155512642015
sS'move'
p1923
F5.990392544146647
sS'impeachment'
p1924
F7.243155512642015
sS'goooooogle'
p1925
F7.243155512642015
sS'vms'
p1926
F7.243155512642015
sS'crowdmap'
p1927
F7.243155512642015
sS'perfect'
p1928
F6.83769040453385
sS'chosen'
p1929
F6.83769040453385
sS'lulzy'
p1930
F6.83769040453385
sS'winning'
p1931
F7.243155512642015
sS'macroeconomists'
p1932
F7.243155512642015
sS'rabl'
p1933
F7.243155512642015
sS'designs'
p1934
F7.243155512642015
sS'python'
p1935
F6.5500083320820695
sS'docs'
p1936
F5.633717600207914
sS'consci'
p1937
F7.243155512642015
sS'dock'
p1938
F7.243155512642015
sS'cutting'
p1939
F6.83769040453385
sS'courtroom'
p1940
F7.243155512642015
sS'das'
p1941
F7.243155512642015
sS'outlines'
p1942
F7.243155512642015
sS'airports'
p1943
F7.243155512642015
sS'warned'
p1944
F7.243155512642015
sS'nobodies'
p1945
F7.243155512642015
sS'exte'
p1946
F7.243155512642015
sS'truth'
p1947
F5.633717600207914
sS'identifier'
p1948
F7.243155512642015
sS'npm'
p1949
F7.243155512642015
sS'strip'
p1950
F7.243155512642015
sS'society'
p1951
F7.243155512642015
sS'meta'
p1952
F7.243155512642015
sS'static'
p1953
F6.83769040453385
sS'zucotti'
p1954
F6.83769040453385
sS'programmer'
p1955
F6.5500083320820695
sS'bay'
p1956
F7.243155512642015
sS'sexual'
p1957
F7.243155512642015
sS'witness'
p1958
F7.243155512642015
sS'fundamentally'
p1959
F7.243155512642015
sS'spectrum'
p1960
F6.83769040453385
sS'res'
p1961
F7.243155512642015
sS'wholly'
p1962
F7.243155512642015
sS'hilarious'
p1963
F6.83769040453385
sS'reg'
p1964
F6.83769040453385
sS'red'
p1965
F6.32686478076786
sS'shut'
p1966
F7.243155512642015
sS'scumbag'
p1967
F7.243155512642015
sS'classist'
p1968
F7.243155512642015
sS'salami'
p1969
F7.243155512642015
sS'factored'
p1970
F7.243155512642015
sS'early'
p1971
F5.856861151522124
sS'rowdiness'
p1972
F7.243155512642015
sS'forwarded'
p1973
F7.243155512642015
sS'backwards'
p1974
F6.5500083320820695
sS'allies'
p1975
F6.83769040453385
sS'libertarianism'
p1976
F6.83769040453385
sS'david'
p1977
F6.83769040453385
sS'length'
p1978
F6.5500083320820695
sS'davis'
p1979
F7.243155512642015
sS'retain'
p1980
F7.243155512642015
sS'troublemakers'
p1981
F7.243155512642015
sS'invisible'
p1982
F7.243155512642015
sS'south'
p1983
F7.243155512642015
sS'touring'
p1984
F7.243155512642015
sS'owned'
p1985
F7.243155512642015
sS'jesus'
p1986
F5.73907811586574
sS'pgp'
p1987
F6.83769040453385
sS'reached'
p1988
F7.243155512642015
sS'prank'
p1989
F7.243155512642015
sS'ancient'
p1990
F7.243155512642015
sS'deceptive'
p1991
F7.243155512642015
sS'monkey'
p1992
F7.243155512642015
sS'bologna'
p1993
F7.243155512642015
sS'carrierwave'
p1994
F6.5500083320820695
sS'system'
p1995
F6.5500083320820695
sS'interests'
p1996
F7.243155512642015
sS'enforcement'
p1997
F6.83769040453385
sS'changebrazil'
p1998
F6.5500083320820695
sS'bugfixes'
p1999
F7.243155512642015
sS'eavesdrop'
p2000
F7.243155512642015
sS'ambiguous'
p2001
F7.243155512642015
sS'negri'
p2002
F7.243155512642015
sS'gotcha'
p2003
F6.32686478076786
sS'depressing'
p2004
F6.83769040453385
sS'haven'
p2005
F4.758248862854014
sS'ipad'
p2006
F6.83769040453385
sS'loved'
p2007
F7.243155512642015
sS'condone'
p2008
F7.243155512642015
sS'roulette'
p2009
F7.243155512642015
sS'heh'
p2010
F5.53840742040359
sS'bother'
p2011
F6.83769040453385
sS'hahahahahahahaha'
p2012
F7.243155512642015
sS'sourcing'
p2013
F6.83769040453385
sS'tortures'
p2014
F7.243155512642015
sS'collecting'
p2015
F6.83769040453385
sS'false'
p2016
F6.5500083320820695
sS'trusting'
p2017
F7.243155512642015
sS'tonight'
p2018
F5.856861151522124
sS'defending'
p2019
F7.243155512642015
sS'clearly'
p2020
F7.243155512642015
sS'viewed'
p2021
F6.83769040453385
sS'documents'
p2022
F6.83769040453385
sS'mil'
p2023
F7.243155512642015
sS'congrats'
p2024
F6.83769040453385
sS'neater'
p2025
F7.243155512642015
sS'mid'
p2026
F6.83769040453385
sS'incentive'
p2027
F7.243155512642015
sS'adjunct'
p2028
F7.243155512642015
sS'sinatra'
p2029
F6.5500083320820695
sS'concerns'
p2030
F6.5500083320820695
sS'parki'
p2031
F7.243155512642015
sS'enactment'
p2032
F7.243155512642015
sS'persistence'
p2033
F7.243155512642015
sS'worldwide'
p2034
F7.243155512642015
sS'sfo'
p2035
F6.32686478076786
sS'visa'
p2036
F6.83769040453385
sS'device'
p2037
F7.243155512642015
sS'peek'
p2038
F7.243155512642015
sS'transcript'
p2039
F7.243155512642015
sS'payment'
p2040
F7.243155512642015
sS'fair'
p2041
F6.5500083320820695
sS'fleed'
p2042
F7.243155512642015
sS'collateral'
p2043
F7.243155512642015
sS'stranded'
p2044
F6.83769040453385
sS'request'
p2045
F5.990392544146647
sS'disease'
p2046
F7.243155512642015
sS'face'
p2047
F7.243155512642015
sS'graphs'
p2048
F7.243155512642015
sS'absurd'
p2049
F7.243155512642015
sS'wounded'
p2050
F7.243155512642015
sS'tarsnap'
p2051
F6.144543223973905
sS'fact'
p2052
F6.144543223973905
sS'interviewing'
p2053
F7.243155512642015
sS'stream'
p2054
F7.243155512642015
sS'supported'
p2055
F6.83769040453385
sS'assholes'
p2056
F7.243155512642015
sS'centralized'
p2057
F7.243155512642015
sS'bring'
p2058
F6.5500083320820695
sS'biker'
p2059
F7.243155512642015
sS'rough'
p2060
F6.83769040453385
sS'asylum'
p2061
F6.32686478076786
sS'decade'
p2062
F6.83769040453385
sS'intersectionality'
p2063
F7.243155512642015
sS'symmetric'
p2064
F7.243155512642015
sS'communism'
p2065
F5.990392544146647
sS'knowledge'
p2066
F7.243155512642015
sS'entrepreneur'
p2067
F7.243155512642015
sS'jay'
p2068
F7.243155512642015
sS'jaw'
p2069
F7.243155512642015
sS'terminal'
p2070
F7.243155512642015
sS'riding'
p2071
F7.243155512642015
sS'communist'
p2072
F6.5500083320820695
sS'hope'
p2073
F5.4513960434139594
sS'meant'
p2074
F5.856861151522124
sS'cranks'
p2075
F7.243155512642015
sS'beat'
p2076
F6.5500083320820695
sS'familiar'
p2077
F7.243155512642015
sS'whistleblower'
p2078
F6.5500083320820695
sS'cranky'
p2079
F7.243155512642015
sS'lucky'
p2080
F5.990392544146647
sS'bear'
p2081
F7.243155512642015
sS'wwdc'
p2082
F6.83769040453385
sS'cla'
p2083
F7.243155512642015
sS'iran'
p2084
F7.243155512642015
sS'aes'
p2085
F7.243155512642015
sS'embedded'
p2086
F6.83769040453385
sS'cached'
p2087
F7.243155512642015
sS'taxes'
p2088
F7.243155512642015
sS'calling'
p2089
F6.32686478076786
sS'stuff'
p2090
F4.502315488716813
sS'iiiiiinteresting'
p2091
F7.243155512642015
sS'fixed'
p2092
F6.5500083320820695
sS'btw'
p2093
F5.990392544146647
sS'national'
p2094
F7.243155512642015
sS'reddit'
p2095
F6.83769040453385
sS'travis'
p2096
F6.83769040453385
sS'zealot'
p2097
F7.243155512642015
sS'packed'
p2098
F7.243155512642015
sS'wire'
p2099
F7.243155512642015
sS'superhero'
p2100
F7.243155512642015
sS'reform'
p2101
F7.243155512642015
sS'clearing'
p2102
F7.243155512642015
sS'steubenville'
p2103
F7.243155512642015
sS'routine'
p2104
F7.243155512642015
sS'occupyturkey'
p2105
F7.243155512642015
sS'warren'
p2106
F7.243155512642015
sS'email'
p2107
F4.758248862854014
sS'industries'
p2108
F7.243155512642015
sS'ends'
p2109
F6.83769040453385
sS'superior'
p2110
F7.243155512642015
sS'facepalm'
p2111
F7.243155512642015
sS'synced'
p2112
F7.243155512642015
sS'configuration'
p2113
F7.243155512642015
sS'legit'
p2114
F6.83769040453385
sS'restrictions'
p2115
F7.243155512642015
sS'commenting'
p2116
F6.83769040453385
sS'revoked'
p2117
F7.243155512642015
sS'joke'
p2118
F6.32686478076786
sS'equal'
p2119
F7.243155512642015
sS'streams'
p2120
F6.83769040453385
sS'conquered'
p2121
F7.243155512642015
sS'passing'
p2122
F7.243155512642015
sS'glorious'
p2123
F7.243155512642015
sS'comment'
p2124
F5.990392544146647
sS'relevant'
p2125
F6.5500083320820695
sS'extent'
p2126
F7.243155512642015
sS'invasive'
p2127
F7.243155512642015
sS'laugh'
p2128
F6.83769040453385
sS'coercive'
p2129
F7.243155512642015
sS'oakland'
p2130
F7.243155512642015
sS'earning'
p2131
F6.83769040453385
sS'pouring'
p2132
F7.243155512642015
sS'leads'
p2133
F7.243155512642015
sS'haswell'
p2134
F6.32686478076786
sS'trajectory'
p2135
F7.243155512642015
sS'json'
p2136
F6.5500083320820695
sS'slashdot'
p2137
F7.243155512642015
sS'crunchnang'
p2138
F7.243155512642015
sS'proposal'
p2139
F6.5500083320820695
sS'kitchen'
p2140
F7.243155512642015
sS'paperclip'
p2141
F6.83769040453385
sS'tyranny'
p2142
F7.243155512642015
sS'valuations'
p2143
F7.243155512642015
sS'received'
p2144
F7.243155512642015
sS'rioting'
p2145
F7.243155512642015
sS'overwhelmingly'
p2146
F7.243155512642015
sS'bulk'
p2147
F6.83769040453385
sS'finished'
p2148
F6.5500083320820695
sS'bull'
p2149
F7.243155512642015
sS'spain'
p2150
F7.243155512642015
sS'bye'
p2151
F7.243155512642015
sS'wabi'
p2152
F6.83769040453385
sS'plain'
p2153
F7.243155512642015
sS'advisors'
p2154
F7.243155512642015
sS'scanned'
p2155
F7.243155512642015
sS'expiration'
p2156
F7.243155512642015
sS'hahaha'
p2157
F6.5500083320820695
sS'cve'
p2158
F7.243155512642015
sS'pairwithme'
p2159
F7.243155512642015
sS'manually'
p2160
F7.243155512642015
sS'dissent'
p2161
F7.243155512642015
sS'arment'
p2162
F7.243155512642015
sS'site'
p2163
F5.856861151522124
sS'helped'
p2164
F6.5500083320820695
sS'lifetime'
p2165
F7.243155512642015
sS'claimed'
p2166
F7.243155512642015
sS'regression'
p2167
F7.243155512642015
sS'trackpad'
p2168
F7.243155512642015
sS'cohort'
p2169
F7.243155512642015
sS'terrorist'
p2170
F7.243155512642015
sS'standups'
p2171
F7.243155512642015
sS'administration'
p2172
F7.243155512642015
sS'fashioning'
p2173
F7.243155512642015
sS'paulo'
p2174
F6.83769040453385
sS'allocator'
p2175
F7.243155512642015
sS'brag'
p2176
F7.243155512642015
sS'terrorism'
p2177
F7.243155512642015
sS'finite'
p2178
F7.243155512642015
sS'injured'
p2179
F7.243155512642015
sS'shames'
p2180
F7.243155512642015
sS'reporting'
p2181
F6.5500083320820695
sS'ios'
p2182
F6.83769040453385
sS'blockers'
p2183
F7.243155512642015
sS'dust'
p2184
F7.243155512642015
sS'completeness'
p2185
F7.243155512642015
sS'judgment'
p2186
F7.243155512642015
sS'identity'
p2187
F7.243155512642015
sS'commenters'
p2188
F6.83769040453385
sS'center'
p2189
F6.32686478076786
sS'mention'
p2190
F5.856861151522124
sS'thought'
p2191
F4.991863714035519
sS'patterns'
p2192
F7.243155512642015
sS'oops'
p2193
F6.5500083320820695
sS'position'
p2194
F6.144543223973905
sS'audio'
p2195
F7.243155512642015
sS'latest'
p2196
F6.5500083320820695
sS'newest'
p2197
F7.243155512642015
sS'moments'
p2198
F6.83769040453385
sS'proximity'
p2199
F7.243155512642015
sS'executive'
p2200
F7.243155512642015
sS'stenograp'
p2201
F7.243155512642015
sS'stored'
p2202
F7.243155512642015
sS'rooms'
p2203
F7.243155512642015
sS'years'
p2204
F4.604098183026756
sS'paul'
p2205
F7.243155512642015
sS'abolish'
p2206
F7.243155512642015
sS'guine'
p2207
F7.243155512642015
sS'web'
p2208
F5.4513960434139594
sS'ads'
p2209
F6.5500083320820695
sS'fled'
p2210
F7.243155512642015
sS'add'
p2211
F6.5500083320820695
sS'neoliberal'
p2212
F7.243155512642015
sS'wiretapped'
p2213
F7.243155512642015
sS'match'
p2214
F7.243155512642015
sS'gmt'
p2215
F7.243155512642015
sS'whitelisting'
p2216
F7.243155512642015
sS'tests'
p2217
F5.856861151522124
sS'government'
p2218
F5.990392544146647
sS'checking'
p2219
F6.83769040453385
sS'fyi'
p2220
F7.243155512642015
sS'crux'
p2221
F7.243155512642015
sS'insert'
p2222
F7.243155512642015
sS'trash'
p2223
F7.243155512642015
sS'onion'
p2224
F7.243155512642015
sS'isomo'
p2225
F7.243155512642015
sS'vibrant'
p2226
F5.990392544146647
sS'journalism'
p2227
F7.243155512642015
sS'chick'
p2228
F7.243155512642015
sS'works'
p2229
F5.297245363586701
sS'accessible'
p2230
F6.83769040453385
sS'authority'
p2231
F7.243155512642015
sS'daylight'
p2232
F7.243155512642015
sS'band'
p2233
F7.243155512642015
sS'recommendation'
p2234
F7.243155512642015
sS'proper'
p2235
F7.243155512642015
sS'siddhant'
p2236
F7.243155512642015
sS'highlighting'
p2237
F7.243155512642015
sS'obsessed'
p2238
F7.243155512642015
sS'esp'
p2239
F7.243155512642015
sS'archeology'
p2240
F7.243155512642015
sS'avoid'
p2241
F7.243155512642015
sS'salaries'
p2242
F6.83769040453385
sS'assuming'
p2243
F7.243155512642015
sS'screwed'
p2244
F6.5500083320820695
sS'uhhhh'
p2245
F7.243155512642015
sS'noise'
p2246
F6.83769040453385
sS'schedule'
p2247
F5.990392544146647
sS'robots'
p2248
F7.243155512642015
sS'lastnight'
p2249
F7.243155512642015
sS'simpler'
p2250
F7.243155512642015
sS'gifts'
p2251
F7.243155512642015
sS'actual'
p2252
F5.990392544146647
sS'puts'
p2253
F7.243155512642015
sS'basis'
p2254
F6.83769040453385
sS'location'
p2255
F6.83769040453385
sS'flaky'
p2256
F7.243155512642015
sS'statement'
p2257
F6.32686478076786
sS'rubby'
p2258
F7.243155512642015
sS'transitive'
p2259
F7.243155512642015
sS'rubythankful'
p2260
F6.83769040453385
sS'registry'
p2261
F7.243155512642015
sS'smarts'
p2262
F7.243155512642015
sS'libertarians'
p2263
F5.73907811586574
sS'rectify'
p2264
F7.243155512642015
sS'privatizing'
p2265
F6.83769040453385
sS'pussy'
p2266
F7.243155512642015
sS'functional'
p2267
F6.5500083320820695
sS'criticised'
p2268
F7.243155512642015
sS'guard'
p2269
F7.243155512642015
sS'female'
p2270
F5.73907811586574
sS'joyce'
p2271
F7.243155512642015
sS'mere'
p2272
F7.243155512642015
sS'beyesianism'
p2273
F7.243155512642015
sS'rting'
p2274
F7.243155512642015
sS'rcs'
p2275
F7.243155512642015
sS'impeding'
p2276
F7.243155512642015
sS'utopian'
p2277
F7.243155512642015
sS'biggest'
p2278
F6.83769040453385
sS'ivory'
p2279
F7.243155512642015
sS'buy'
p2280
F6.5500083320820695
sS'bus'
p2281
F7.243155512642015
sS'brand'
p2282
F7.243155512642015
sS'privilege'
p2283
F7.243155512642015
sS'repeated'
p2284
F7.243155512642015
sS'delivers'
p2285
F7.243155512642015
sS'editing'
p2286
F7.243155512642015
sS'bug'
p2287
F5.53840742040359
sS'count'
p2288
F6.5500083320820695
sS'compute'
p2289
F7.243155512642015
sS'places'
p2290
F5.990392544146647
sS'dangerous'
p2291
F6.83769040453385
sS'official'
p2292
F7.243155512642015
sS'flip'
p2293
F7.243155512642015
sS'guatanamo'
p2294
F7.243155512642015
sS'books'
p2295
F7.243155512642015
sS'problem'
p2296
F5.53840742040359
sS'minutes'
p2297
F5.73907811586574
sS'whoah'
p2298
F5.633717600207914
sS'deaths'
p2299
F6.83769040453385
sS'inv'
p2300
F7.243155512642015
sS'contribute'
p2301
F6.83769040453385
sS'romney'
p2302
F7.243155512642015
sS'aaaaaaamazing'
p2303
F7.243155512642015
sS'ind'
p2304
F7.243155512642015
sS'shooting'
p2305
F7.243155512642015
sS'compared'
p2306
F7.243155512642015
sS'revocation'
p2307
F7.243155512642015
sS'variety'
p2308
F7.243155512642015
sS'special'
p2309
F6.5500083320820695
sS'fetishism'
p2310
F7.243155512642015
sS'mentions'
p2311
F7.243155512642015
sS'dresses'
p2312
F7.243155512642015
sS'nelson'
p2313
F7.243155512642015
sS'dictatorships'
p2314
F7.243155512642015
sS'francisco'
p2315
F6.5500083320820695
sS'monday'
p2316
F7.243155512642015
sS'findentally'
p2317
F7.243155512642015
sS'oppression'
p2318
F6.83769040453385
sS'bundle'
p2319
F7.243155512642015
sS'gcc'
p2320
F7.243155512642015
sS'chance'
p2321
F6.32686478076786
sS'badass'
p2322
F6.83769040453385
sS'christians'
p2323
F7.243155512642015
sS'inspiration'
p2324
F7.243155512642015
sS'ghost'
p2325
F7.243155512642015
sS'rule'
p2326
F6.32686478076786
sS'makerbot'
p2327
F7.243155512642015
sS'mercenary'
p2328
F7.243155512642015
sS'compete'
p2329
F7.243155512642015
sS'yell'
p2330
F7.243155512642015
sS'gardens'
p2331
F7.243155512642015
sS'ticketee'
p2332
F6.5500083320820695
sS'limited'
p2333
F7.243155512642015
sS'rebrands'
p2334
F7.243155512642015
sS'hats'
p2335
F7.243155512642015
sS'personally'
p2336
F6.5500083320820695
sS'dynasty'
p2337
F7.243155512642015
sS'facilities'
p2338
F7.243155512642015
sS'sleep'
p2339
F7.243155512642015
sS'hate'
p2340
F5.53840742040359
sS'downplay'
p2341
F7.243155512642015
sS'forget'
p2342
F5.990392544146647
sS'patches'
p2343
F7.243155512642015
sS'paris'
p2344
F7.243155512642015
sS'tweet'
p2345
F4.845260239843644
sS'fbrape'
p2346
F6.5500083320820695
sS'bludgeon'
p2347
F7.243155512642015
sS'patched'
p2348
F6.83769040453385
sS'edward'
p2349
F5.990392544146647
sS'voted'
p2350
F6.83769040453385
sS'pride'
p2351
F6.83769040453385
sS'worth'
p2352
F6.32686478076786
sS'blanket'
p2353
F7.243155512642015
sS'quicktime'
p2354
F7.243155512642015
sS'wagons'
p2355
F7.243155512642015
sS'singtel'
p2356
F7.243155512642015
sS'encounter'
p2357
F7.243155512642015
sS'ksha'
p2358
F7.243155512642015
sS'school'
p2359
F6.5500083320820695
sS'debunked'
p2360
F7.243155512642015
sS'monsanto'
p2361
F7.243155512642015
sS'affirming'
p2362
F7.243155512642015
sS'println'
p2363
F7.243155512642015
sS'zdf'
p2364
F7.243155512642015
sS'undercover'
p2365
F7.243155512642015
sS'enjoy'
p2366
F6.32686478076786
sS'degrading'
p2367
F7.243155512642015
sS'phones'
p2368
F6.32686478076786
sS'consistent'
p2369
F6.5500083320820695
sS'direct'
p2370
F6.5500083320820695
sS'snafu'
p2371
F7.243155512642015
sS'chef'
p2372
F6.5500083320820695
sS'incantation'
p2373
F7.243155512642015
sS'nerdiest'
p2374
F7.243155512642015
sS'louder'
p2375
F7.243155512642015
sS'specs'
p2376
F7.243155512642015
sS'machines'
p2377
F7.243155512642015
sS'blue'
p2378
F6.5500083320820695
sS'hide'
p2379
F7.243155512642015
sS'christ'
p2380
F6.5500083320820695
sS'religious'
p2381
F7.243155512642015
sS'hypermeda'
p2382
F7.243155512642015
sS'liberty'
p2383
F6.83769040453385
sS'reasoning'
p2384
F6.5500083320820695
sS'conduct'
p2385
F6.83769040453385
sS'officially'
p2386
F6.83769040453385
sS'told'
p2387
F5.856861151522124
sS'crunch'
p2388
F6.83769040453385
sS'richest'
p2389
F7.243155512642015
sS'hundreds'
p2390
F6.83769040453385
sS'conglomerate'
p2391
F7.243155512642015
sS'beck'
p2392
F7.243155512642015
sS'path'
p2393
F6.83769040453385
sS'enrol'
p2394
F7.243155512642015
sS'kudos'
p2395
F7.243155512642015
sS'daughter'
p2396
F7.243155512642015
sS'forum'
p2397
F7.243155512642015
sS'items'
p2398
F7.243155512642015
sS'employees'
p2399
F5.990392544146647
sS'changed'
p2400
F7.243155512642015
sS'affective'
p2401
F7.243155512642015
sS'analysts'
p2402
F7.243155512642015
sS'anarchist'
p2403
F6.32686478076786
sS'changes'
p2404
F6.83769040453385
sS'punishment'
p2405
F7.243155512642015
sS'secure'
p2406
F7.243155512642015
sS'appelbaum'
p2407
F7.243155512642015
sS'implode'
p2408
F7.243155512642015
sS'highly'
p2409
F6.5500083320820695
sS'bro'
p2410
F7.243155512642015
sS'meats'
p2411
F7.243155512642015
sS'total'
p2412
F6.5500083320820695
sS'forums'
p2413
F6.83769040453385
sS'indians'
p2414
F7.243155512642015
sS'negative'
p2415
F6.5500083320820695
sS'fransico'
p2416
F7.243155512642015
sS'asset'
p2417
F7.243155512642015
sS'spike'
p2418
F7.243155512642015
sS'annotations'
p2419
F7.243155512642015
sS'breathe'
p2420
F7.243155512642015
sS'haha'
p2421
F5.990392544146647
sS'aware'
p2422
F6.83769040453385
sS'grief'
p2423
F6.83769040453385
sS'phone'
p2424
F5.22825249209975
sS'excellent'
p2425
F6.32686478076786
sS'blocking'
p2426
F6.5500083320820695
sS'shoot'
p2427
F7.243155512642015
sS'join'
p2428
F6.83769040453385
sS'wore'
p2429
F7.243155512642015
sS'work'
p2430
F4.175102577508397
sS'era'
p2431
F7.243155512642015
sS'install'
p2432
F5.73907811586574
sS'goood'
p2433
F7.243155512642015
sS'bennett'
p2434
F6.144543223973905
sS'india'
p2435
F5.633717600207914
sS'fax'
p2436
F7.243155512642015
sS'plutocratisation'
p2437
F7.243155512642015
sS'scheduling'
p2438
F7.243155512642015
sS'provide'
p2439
F6.83769040453385
sS'verify'
p2440
F7.243155512642015
sS'meatspace'
p2441
F7.243155512642015
sS'writers'
p2442
F7.243155512642015
sS'env'
p2443
F6.83769040453385
sS'interview'
p2444
F7.243155512642015
sS'horror'
p2445
F7.243155512642015
sS'gamble'
p2446
F7.243155512642015
sS'pizza'
p2447
F6.5500083320820695
sS'disproportiona'
p2448
F7.243155512642015
sS'description'
p2449
F6.83769040453385
sS'mess'
p2450
F6.83769040453385
sS'turing'
p2451
F7.243155512642015
sS'insecure'
p2452
F6.83769040453385
sS'earlier'
p2453
F5.990392544146647
sS'lab'
p2454
F7.243155512642015
sS'lax'
p2455
F5.297245363586701
sS'lay'
p2456
F7.243155512642015
sS'law'
p2457
F6.83769040453385
sS'arch'
p2458
F5.856861151522124
sS'parallel'
p2459
F7.243155512642015
sS'bootstrap'
p2460
F6.144543223973905
sS'acknowledged'
p2461
F7.243155512642015
sS'greek'
p2462
F6.83769040453385
sS'complexity'
p2463
F7.243155512642015
sS'green'
p2464
F6.83769040453385
sS'enter'
p2465
F6.5500083320820695
sS'fan'
p2466
F7.243155512642015
sS'acknowledges'
p2467
F7.243155512642015
sS'order'
p2468
F5.73907811586574
sS'office'
p2469
F6.5500083320820695
sS'dijkstra'
p2470
F7.243155512642015
sS'london'
p2471
F6.83769040453385
sS'japan'
p2472
F6.5500083320820695
sS'dnsimple'
p2473
F7.243155512642015
sS'digest'
p2474
F7.243155512642015
sS'imf'
p2475
F7.243155512642015
sS'expectations'
p2476
F6.83769040453385
sS'imo'
p2477
F6.83769040453385
sS'writing'
p2478
F5.371353335740423
sS'destroyed'
p2479
F7.243155512642015
sS'production'
p2480
F6.5500083320820695
sS'compelling'
p2481
F7.243155512642015
sS'split'
p2482
F7.243155512642015
sS'eventually'
p2483
F6.32686478076786
sS'coffee'
p2484
F6.83769040453385
sS'iowa'
p2485
F7.243155512642015
sS'ehhhhhhh'
p2486
F7.243155512642015
sS'safe'
p2487
F5.856861151522124
sS'scene'
p2488
F6.83769040453385
sS'break'
p2489
F6.32686478076786
sS'revelations'
p2490
F7.243155512642015
sS'bang'
p2491
F7.243155512642015
sS'shameful'
p2492
F7.243155512642015
sS'bank'
p2493
F6.5500083320820695
sS'shadows'
p2494
F7.243155512642015
sS'changelog'
p2495
F7.243155512642015
sS'regularly'
p2496
F6.83769040453385
sS'fonts'
p2497
F6.83769040453385
sS'backgrounds'
p2498
F7.243155512642015
sS'rocks'
p2499
F7.243155512642015
sS'reasonable'
p2500
F6.83769040453385
sS'signapore'
p2501
F7.243155512642015
sS'signing'
p2502
F7.243155512642015
sS'mahogany'
p2503
F7.243155512642015
sS'crimes'
p2504
F7.243155512642015
sS'hosted'
p2505
F7.243155512642015
sS'logo'
p2506
F6.144543223973905
sS'ghosts'
p2507
F6.83769040453385
sS'saturday'
p2508
F7.243155512642015
sS'revisions'
p2509
F7.243155512642015
sS'lair'
p2510
F7.243155512642015
sS'network'
p2511
F7.243155512642015
sS'laid'
p2512
F7.243155512642015
sS'railsapps'
p2513
F7.243155512642015
sS'gov'
p2514
F5.371353335740423
sS'sliding'
p2515
F7.243155512642015
sS'barrier'
p2516
F7.243155512642015
sS'eternal'
p2517
F7.243155512642015
sS'free'
p2518
F4.64046582719763
sS'admits'
p2519
F6.5500083320820695
sS'formation'
p2520
F7.243155512642015
sS'scoped'
p2521
F7.243155512642015
sS'wanted'
p2522
F5.990392544146647
sS'muller'
p2523
F7.243155512642015
sS'dammit'
p2524
F7.243155512642015
sS'merciless'
p2525
F7.243155512642015
sS'bestekar'
p2526
F7.243155512642015
sS'hyperbolic'
p2527
F7.243155512642015
sS'days'
p2528
F4.717426868333759
sS'filter'
p2529
F7.243155512642015
sS'lousy'
p2530
F7.243155512642015
sS'heck'
p2531
F7.243155512642015
sS'hopeless'
p2532
F7.243155512642015
sS'corrections'
p2533
F7.243155512642015
sS'benchmarking'
p2534
F6.83769040453385
sS'rand'
p2535
F7.243155512642015
sS'organize'
p2536
F7.243155512642015
sS'fuckers'
p2537
F7.243155512642015
sS'coding'
p2538
F6.83769040453385
sS'encouraging'
p2539
F7.243155512642015
sS'rank'
p2540
F7.243155512642015
sS'hearing'
p2541
F6.32686478076786
sS'occupancy'
p2542
F6.32686478076786
sS'drones'
p2543
F6.5500083320820695
sS'tor'
p2544
F5.990392544146647
sS'sarcasm'
p2545
F6.5500083320820695
sS'top'
p2546
F5.856861151522124
sS'bitcoin'
p2547
F6.144543223973905
sS'elevator'
p2548
F6.83769040453385
sS'fiction'
p2549
F6.5500083320820695
sS'ton'
p2550
F6.32686478076786
sS'insightful'
p2551
F7.243155512642015
sS'murder'
p2552
F7.243155512642015
sS'servo'
p2553
F7.243155512642015
sS'openbox'
p2554
F6.144543223973905
sS'tool'
p2555
F6.32686478076786
sS'leaking'
p2556
F6.32686478076786
sS'wasted'
p2557
F6.83769040453385
sS'classed'
p2558
F7.243155512642015
sS'target'
p2559
F6.83769040453385
sS'roles'
p2560
F6.83769040453385
sS'immigrants'
p2561
F7.243155512642015
sS'classes'
p2562
F6.83769040453385
sS'flame'
p2563
F6.5500083320820695
sS'misinformed'
p2564
F7.243155512642015
sS'blackwater'
p2565
F7.243155512642015
sS'hacking'
p2566
F6.83769040453385
sS'solely'
p2567
F6.83769040453385
sS'bridge'
p2568
F7.243155512642015
sS'lulz'
p2569
F7.243155512642015
sS'microframeworks'
p2570
F7.243155512642015
sS'assange'
p2571
F6.5500083320820695
sS'talking'
p2572
F5.53840742040359
sS'angularjs'
p2573
F7.243155512642015
sS'contents'
p2574
F7.243155512642015
sS'forced'
p2575
F7.243155512642015
sS'laden'
p2576
F6.83769040453385
sS'diren'
p2577
F7.243155512642015
sS'oriented'
p2578
F6.83769040453385
sS'materials'
p2579
F7.243155512642015
sS'luxury'
p2580
F7.243155512642015
sS'forces'
p2581
F6.83769040453385
sS'laughed'
p2582
F6.83769040453385
sS'reals'
p2583
F7.243155512642015
sS'bruce'
p2584
F7.243155512642015
sS'ebook'
p2585
F7.243155512642015
sS'plenty'
p2586
F7.243155512642015
sS'scripts'
p2587
F7.243155512642015
sS'exercises'
p2588
F7.243155512642015
sS'autopsy'
p2589
F7.243155512642015
sS'metal'
p2590
F6.83769040453385
sS'iiiinteresting'
p2591
F6.5500083320820695
sS'aaaaaaawkward'
p2592
F7.243155512642015
sS'responded'
p2593
F6.83769040453385
sS'bait'
p2594
F7.243155512642015
sS'labels'
p2595
F7.243155512642015
sS'totaltraveltime'
p2596
F7.243155512642015
sS'radio'
p2597
F7.243155512642015
sS'queer'
p2598
F6.5500083320820695
sS'subtle'
p2599
F7.243155512642015
sS'enjoyed'
p2600
F6.5500083320820695
sS'ressentiment'
p2601
F7.243155512642015
sS'dateline'
p2602
F7.243155512642015
sS'hrs'
p2603
F7.243155512642015
sS'matters'
p2604
F7.243155512642015
sS'spitz'
p2605
F7.243155512642015
sS'chipotle'
p2606
F7.243155512642015
sS'steel'
p2607
F7.243155512642015
sS'uhhh'
p2608
F6.5500083320820695
sS'watch'
p2609
F6.32686478076786
sS'fluid'
p2610
F7.243155512642015
sS'geek'
p2611
F7.243155512642015
sS'amazon'
p2612
F6.83769040453385
sS'report'
p2613
F6.83769040453385
sS'knocks'
p2614
F7.243155512642015
sS'runs'
p2615
F7.243155512642015
sS'emo'
p2616
F7.243155512642015
sS'suffrage'
p2617
F7.243155512642015
sS'public'
p2618
F5.22825249209975
sS'shots'
p2619
F7.243155512642015
sS'steal'
p2620
F7.243155512642015
sS'cypherpunks'
p2621
F6.83769040453385
sS'rubinius'
p2622
F6.83769040453385
sS'liquor'
p2623
F7.243155512642015
sS'observed'
p2624
F7.243155512642015
sS'depends'
p2625
F5.73907811586574
sS'num'
p2626
F7.243155512642015
sS'sourcings'
p2627
F7.243155512642015
sS'submitted'
p2628
F6.83769040453385
sS'discussions'
p2629
F6.83769040453385
sS'hash'
p2630
F7.243155512642015
sS'iirc'
p2631
F6.5500083320820695
sS'grandmother'
p2632
F7.243155512642015
sS'unable'
p2633
F7.243155512642015
sS'hopefully'
p2634
F5.856861151522124
sS'approach'
p2635
F7.243155512642015
sS'clued'
p2636
F7.243155512642015
sS'reiterate'
p2637
F7.243155512642015
sS'terms'
p2638
F6.83769040453385
sS'literally'
p2639
F5.856861151522124
sS'weak'
p2640
F6.83769040453385
sS'boss'
p2641
F7.243155512642015
sS'wear'
p2642
F6.83769040453385
sS'clues'
p2643
F7.243155512642015
sS'dedication'
p2644
F7.243155512642015
sS'news'
p2645
F5.103089349145744
sS'packages'
p2646
F7.243155512642015
sS'scribbling'
p2647
F7.243155512642015
sS'cop'
p2648
F6.83769040453385
sS'essentially'
p2649
F7.243155512642015
sS'cov'
p2650
F7.243155512642015
sS'fault'
p2651
F6.83769040453385
sS'shouldn'
p2652
F6.32686478076786
sS'participating'
p2653
F7.243155512642015
sS'coc'
p2654
F7.243155512642015
sS'games'
p2655
F6.32686478076786
sS'faces'
p2656
F7.243155512642015
sS'threads'
p2657
F6.83769040453385
sS'requests'
p2658
F6.144543223973905
sS'con'
p2659
F7.243155512642015
sS'standings'
p2660
F7.243155512642015
sS'tons'
p2661
F6.83769040453385
sS'comprehension'
p2662
F7.243155512642015
sS'trust'
p2663
F5.990392544146647
sS'speak'
p2664
F6.144543223973905
sS'conference'
p2665
F5.73907811586574
sS'iraq'
p2666
F6.5500083320820695
sS'engines'
p2667
F7.243155512642015
sS'loltimezones'
p2668
F7.243155512642015
sS'buffett'
p2669
F7.243155512642015
sS'beer'
p2670
F6.83769040453385
sS'spread'
p2671
F6.5500083320820695
sS'expected'
p2672
F6.144543223973905
sS'muddies'
p2673
F7.243155512642015
sS'drugs'
p2674
F6.83769040453385
sS'andunder'
p2675
F7.243155512642015
sS'foucault'
p2676
F7.243155512642015
sS'telcos'
p2677
F7.243155512642015
sS'craft'
p2678
F7.243155512642015
sS'catch'
p2679
F6.5500083320820695
sS'patronizing'
p2680
F7.243155512642015
sS'applied'
p2681
F6.5500083320820695
sS'east'
p2682
F6.83769040453385
sS'gnu'
p2683
F6.5500083320820695
sS'stubs'
p2684
F7.243155512642015
sS'air'
p2685
F6.5500083320820695
sS'dept'
p2686
F7.243155512642015
sS'weren'
p2687
F7.243155512642015
sS'formatting'
p2688
F7.243155512642015
sS'stopping'
p2689
F7.243155512642015
sS'aid'
p2690
F7.243155512642015
sS'endpoints'
p2691
F7.243155512642015
sS'launched'
p2692
F7.243155512642015
sS'mistake'
p2693
F7.243155512642015
sS'pyramid'
p2694
F7.243155512642015
sS'shebang'
p2695
F7.243155512642015
sS'sticker'
p2696
F6.5500083320820695
sS'mobifo'
p2697
F7.243155512642015
sS'experts'
p2698
F6.5500083320820695
sS'experience'
p2699
F6.32686478076786
sS'conf'
p2700
F5.990392544146647
sS'confirmed'
p2701
F6.5500083320820695
sS'nike'
p2702
F7.243155512642015
sS'punctuation'
p2703
F7.243155512642015
sS'complex'
p2704
F6.5500083320820695
sS'sidecar'
p2705
F7.243155512642015
sS'indictment'
p2706
F7.243155512642015
sS'leftist'
p2707
F7.243155512642015
sS'raid'
p2708
F7.243155512642015
sS'numerical'
p2709
F7.243155512642015
sS'hang'
p2710
F5.990392544146647
sS'evil'
p2711
F6.5500083320820695
sS'hand'
p2712
F6.5500083320820695
sS'euruko'
p2713
F7.243155512642015
sS'surveilling'
p2714
F6.83769040453385
sS'characters'
p2715
F6.83769040453385
sS'animations'
p2716
F7.243155512642015
sS'leftism'
p2717
F7.243155512642015
sS'cycle'
p2718
F7.243155512642015
sS'mentioning'
p2719
F6.5500083320820695
sS'shortly'
p2720
F7.243155512642015
sS'scenario'
p2721
F7.243155512642015
sS'min'
p2722
F7.243155512642015
sS'savings'
p2723
F6.83769040453385
sS'client'
p2724
F7.243155512642015
sS'greatest'
p2725
F7.243155512642015
sS'mother'
p2726
F7.243155512642015
sS'camps'
p2727
F6.83769040453385
sS'tha'
p2728
F7.243155512642015
sS'unified'
p2729
F7.243155512642015
sS'negot'
p2730
F7.243155512642015
sS'jurisdictions'
p2731
F7.243155512642015
sS'quoted'
p2732
F7.243155512642015
sS'photo'
p2733
F6.144543223973905
sS'laptop'
p2734
F6.32686478076786
sS'grades'
p2735
F6.83769040453385
sS'victim'
p2736
F7.243155512642015
sS'adding'
p2737
F7.243155512642015
sS'elm'
p2738
F7.243155512642015
sS'similarities'
p2739
F6.83769040453385
sS'passive'
p2740
F6.83769040453385
sS'shout'
p2741
F7.243155512642015
sS'belongs'
p2742
F7.243155512642015
sS'transformed'
p2743
F7.243155512642015
sS'board'
p2744
F6.83769040453385
sS'cowardly'
p2745
F7.243155512642015
sS'humanity'
p2746
F6.5500083320820695
sS'capy'
p2747
F7.243155512642015
sS'breaks'
p2748
F7.243155512642015
sS'boxen'
p2749
F7.243155512642015
sS'jekyll'
p2750
F6.83769040453385
sS'cultural'
p2751
F7.243155512642015
sS'celebrates'
p2752
F7.243155512642015
sS'judge'
p2753
F7.243155512642015
sS'designers'
p2754
F7.243155512642015
sS'mis'
p2755
F7.243155512642015
sS'advanced'
p2756
F7.243155512642015
sS'apart'
p2757
F7.243155512642015
sS'gtmo'
p2758
F7.243155512642015
sS'gift'
p2759
F6.83769040453385
sS'cooler'
p2760
F7.243155512642015
sS'hunt'
p2761
F6.83769040453385
sS'xbox'
p2762
F7.243155512642015
sS'specific'
p2763
F6.144543223973905
sS'offices'
p2764
F7.243155512642015
sS'officer'
p2765
F7.243155512642015
sS'sparse'
p2766
F7.243155512642015
sS'night'
p2767
F6.144543223973905
sS'security'
p2768
F5.73907811586574
sS'starvation'
p2769
F7.243155512642015
sS'pgh'
p2770
F7.243155512642015
sS'honored'
p2771
F6.83769040453385
sS'korea'
p2772
F7.243155512642015
sS'sends'
p2773
F7.243155512642015
sS'enrolling'
p2774
F7.243155512642015
sS'hassle'
p2775
F7.243155512642015
sS'critique'
p2776
F6.5500083320820695
sS'tutorial'
p2777
F6.83769040453385
sS'confusing'
p2778
F6.144543223973905
sS'fingerprinting'
p2779
F7.243155512642015
sS'combat'
p2780
F7.243155512642015
sS'comments'
p2781
F5.633717600207914
sS'leakers'
p2782
F7.243155512642015
sS'denied'
p2783
F7.243155512642015
sS'cnn'
p2784
F6.83769040453385
sS'shamir'
p2785
F6.83769040453385
sS'espionage'
p2786
F6.5500083320820695
sS'core'
p2787
F6.83769040453385
sS'pls'
p2788
F7.243155512642015
sS'repository'
p2789
F6.83769040453385
sS'marketing'
p2790
F7.243155512642015
sS'confer'
p2791
F7.243155512642015
sS'pla'
p2792
F7.243155512642015
sS'peer'
p2793
F7.243155512642015
sS'post'
p2794
F4.380954631712546
sS'properties'
p2795
F7.243155512642015
sS'chapter'
p2796
F5.856861151522124
sS'obl'
p2797
F7.243155512642015
sS'attacks'
p2798
F6.5500083320820695
sS'months'
p2799
F5.73907811586574
sS'burbank'
p2800
F7.243155512642015
sS'dinner'
p2801
F7.243155512642015
sS'misleading'
p2802
F7.243155512642015
sS'genocide'
p2803
F7.243155512642015
sS'shared'
p2804
F6.5500083320820695
sS'runtime'
p2805
F7.243155512642015
sS'treble'
p2806
F7.243155512642015
sS'presence'
p2807
F7.243155512642015
sS'civil'
p2808
F7.243155512642015
sS'pays'
p2809
F6.83769040453385
sS'ahh'
p2810
F5.990392544146647
sS'profession'
p2811
F7.243155512642015
sS'bound'
p2812
F6.5500083320820695
sS'ppl'
p2813
F6.5500083320820695
sS'javau'
p2814
F7.243155512642015
sS'rendering'
p2815
F6.83769040453385
sS'laborers'
p2816
F7.243155512642015
sS'ussr'
p2817
F6.83769040453385
sS'donated'
p2818
F7.243155512642015
sS'dissenting'
p2819
F7.243155512642015
sS'giv'
p2820
F7.243155512642015
sS'exaxtly'
p2821
F7.243155512642015
sS'git'
p2822
F5.990392544146647
sS'deal'
p2823
F6.5500083320820695
sS'hypermedia'
p2824
F7.243155512642015
sS'fight'
p2825
F7.243155512642015
sS'stuck'
p2826
F7.243155512642015
sS'gid'
p2827
F7.243155512642015
sS'wat'
p2828
F7.243155512642015
sS'rubykaigi'
p2829
F7.243155512642015
sS'war'
p2830
F6.32686478076786
sS'head'
p2831
F6.5500083320820695
sS'medium'
p2832
F7.243155512642015
sS'differences'
p2833
F7.243155512642015
sS'removes'
p2834
F7.243155512642015
sS'raytracing'
p2835
F7.243155512642015
sS'hear'
p2836
F5.990392544146647
sS'sustained'
p2837
F7.243155512642015
sS'removed'
p2838
F6.83769040453385
sS'true'
p2839
F5.297245363586701
sS'portions'
p2840
F7.243155512642015
sS'attr'
p2841
F6.83769040453385
sS'versions'
p2842
F6.5500083320820695
sS'maximum'
p2843
F6.83769040453385
sS'hmm'
p2844
F6.32686478076786
sS'generosity'
p2845
F7.243155512642015
sS'simplifying'
p2846
F7.243155512642015
sS'submitting'
p2847
F7.243155512642015
sS'nerdy'
p2848
F7.243155512642015
sS'emotional'
p2849
F6.83769040453385
sS'emit'
p2850
F7.243155512642015
sS'stronger'
p2851
F7.243155512642015
sS'abstract'
p2852
F6.83769040453385
sS'suspicions'
p2853
F7.243155512642015
sS'evidence'
p2854
F6.83769040453385
sS'fiiiine'
p2855
F7.243155512642015
sS'expertise'
p2856
F7.243155512642015
sS'telecoms'
p2857
F7.243155512642015
sS'haml'
p2858
F7.243155512642015
sS'opturkey'
p2859
F6.83769040453385
sS'check'
p2860
F4.758248862854014
sS'hackety'
p2861
F7.243155512642015
sS'regime'
p2862
F7.243155512642015
sS'dying'
p2863
F7.243155512642015
sS'topped'
p2864
F7.243155512642015
sS'tim'
p2865
F7.243155512642015
sS'interested'
p2866
F5.371353335740423
sS'whew'
p2867
F7.243155512642015
sS'test'
p2868
F6.32686478076786
sS'realize'
p2869
F6.83769040453385
sS'node'
p2870
F7.243155512642015
sS'picture'
p2871
F7.243155512642015
sS'update'
p2872
F6.5500083320820695
sS'screencasts'
p2873
F7.243155512642015
sS'nods'
p2874
F7.243155512642015
sS'longer'
p2875
F5.990392544146647
sS'excuse'
p2876
F7.243155512642015
sS'governer'
p2877
F7.243155512642015
sS'serious'
p2878
F6.32686478076786
sS'backward'
p2879
F7.243155512642015
sS'stick'
p2880
F6.5500083320820695
sS'concept'
p2881
F7.243155512642015
sS'remarkable'
p2882
F7.243155512642015
sS'switched'
p2883
F7.243155512642015
sS'rob'
p2884
F7.243155512642015
sS'global'
p2885
F6.5500083320820695
sS'alternatives'
p2886
F7.243155512642015
sS'ouch'
p2887
F7.243155512642015
sS'switches'
p2888
F7.243155512642015
sS'roy'
p2889
F7.243155512642015
sS'battle'
p2890
F7.243155512642015
sS'rectangles'
p2891
F7.243155512642015
sS'devoted'
p2892
F7.243155512642015
sS'supposedly'
p2893
F7.243155512642015
sS'protestorj'
p2894
F7.243155512642015
sS'charge'
p2895
F6.5500083320820695
sS'jvm'
p2896
F7.243155512642015
sS'text'
p2897
F6.5500083320820695
sS'discovering'
p2898
F7.243155512642015
sS'dartmouth'
p2899
F7.243155512642015
sS'agreed'
p2900
F6.5500083320820695
sS'protestors'
p2901
F6.5500083320820695
sS'advantage'
p2902
F6.5500083320820695
sS'anonymous'
p2903
F6.32686478076786
sS'blast'
p2904
F6.83769040453385
sS'cool'
p2905
F4.758248862854014
sS'perceived'
p2906
F7.243155512642015
sS'impressive'
p2907
F6.83769040453385
sS'level'
p2908
F6.5500083320820695
sS'turns'
p2909
F7.243155512642015
sS'posts'
p2910
F5.990392544146647
sS'gun'
p2911
F7.243155512642015
sS'cloudy'
p2912
F7.243155512642015
sS'standards'
p2913
F7.243155512642015
sS'soooo'
p2914
F6.83769040453385
sS'participation'
p2915
F7.243155512642015
sS'quick'
p2916
F6.83769040453385
sS'sidewalk'
p2917
F6.83769040453385
sS'democrats'
p2918
F6.83769040453385
sS'revolution'
p2919
F6.32686478076786
sS'regret'
p2920
F7.243155512642015
sS'porn'
p2921
F7.243155512642015
sS'trend'
p2922
F7.243155512642015
sS'professionalism'
p2923
F7.243155512642015
sS'htt'
p2924
F6.32686478076786
sS'postmortems'
p2925
F7.243155512642015
sS'upped'
p2926
F7.243155512642015
sS'initialized'
p2927
F7.243155512642015
sS'helpless'
p2928
F7.243155512642015
sS'port'
p2929
F7.243155512642015
sS'stressful'
p2930
F7.243155512642015
sS'stands'
p2931
F7.243155512642015
sS'reply'
p2932
F6.83769040453385
sS'supporting'
p2933
F6.5500083320820695
sS'unsure'
p2934
F5.371353335740423
sS'peeled'
p2935
F6.5500083320820695
sS'slackers'
p2936
F7.243155512642015
sS'plz'
p2937
F7.243155512642015
sS'trespassers'
p2938
F7.243155512642015
sS'uuuuunsubscribe'
p2939
F7.243155512642015
sS'appears'
p2940
F7.243155512642015
sS'change'
p2941
F5.633717600207914
sS'sending'
p2942
F7.243155512642015
sS'raimohanska'
p2943
F7.243155512642015
sS'incoming'
p2944
F7.243155512642015
sS'eki'
p2945
F7.243155512642015
sS'healthy'
p2946
F6.83769040453385
sS'guilty'
p2947
F7.243155512642015
sS'gemfiles'
p2948
F7.243155512642015
sS'trial'
p2949
F5.297245363586701
sS'upvote'
p2950
F7.243155512642015
sS'weird'
p2951
F5.22825249209975
sS'navigation'
p2952
F6.83769040453385
sS'shootings'
p2953
F7.243155512642015
sS'extra'
p2954
F6.144543223973905
sS'problematic'
p2955
F7.243155512642015
sS'ethiopian'
p2956
F7.243155512642015
sS'fbi'
p2957
F6.32686478076786
sS'drunkenly'
p2958
F7.243155512642015
sS'crisis'
p2959
F6.83769040453385
sS'market'
p2960
F6.32686478076786
sS'handled'
p2961
F7.243155512642015
sS'athens'
p2962
F6.144543223973905
sS'msp'
p2963
F6.32686478076786
sS'live'
p2964
F5.53840742040359
sS'iphone'
p2965
F6.83769040453385
sS'memory'
p2966
F7.243155512642015
sS'today'
p2967
F4.198633074918591
sS'riot'
p2968
F5.856861151522124
sS'sessions'
p2969
F6.83769040453385
sS'club'
p2970
F7.243155512642015
sS'clue'
p2971
F7.243155512642015
sS'cases'
p2972
F6.83769040453385
sS'rubyconfindia'
p2973
F5.371353335740423
sS'lolol'
p2974
F7.243155512642015
sS'car'
p2975
F6.32686478076786
sS'modified'
p2976
F6.83769040453385
sS'cat'
p2977
F6.83769040453385
sS'hardest'
p2978
F6.83769040453385
sS'marginalized'
p2979
F7.243155512642015
sS'ctfc'
p2980
F7.243155512642015
sS'keynes'
p2981
F7.243155512642015
sS'cab'
p2982
F6.5500083320820695
sS'modifies'
p2983
F7.243155512642015
sS'trans'
p2984
F7.243155512642015
sS'breeds'
p2985
F7.243155512642015
sS'streak'
p2986
F7.243155512642015
sS'spy'
p2987
F6.5500083320820695
sS'figure'
p2988
F5.633717600207914
sS'geeks'
p2989
F7.243155512642015
sS'topic'
p2990
F6.83769040453385
sS'heard'
p2991
F5.633717600207914
sS'dropped'
p2992
F7.243155512642015
sS'clothing'
p2993
F7.243155512642015
sS'occup'
p2994
F6.83769040453385
sS'redundancy'
p2995
F7.243155512642015
sS'discussion'
p2996
F5.4513960434139594
sS'cuba'
p2997
F7.243155512642015
sS'write'
p2998
F5.103089349145744
sS'vital'
p2999
F6.5500083320820695
sS'sweatshop'
p3000
F7.243155512642015
sS'economy'
p3001
F7.243155512642015
sS'product'
p3002
F7.243155512642015
sS'cocktail'
p3003
F7.243155512642015
sS'fastmail'
p3004
F6.5500083320820695
sS'fascist'
p3005
F6.5500083320820695
sS'digesting'
p3006
F7.243155512642015
sS'sacrifice'
p3007
F7.243155512642015
sS'aol'
p3008
F7.243155512642015
sS'southern'
p3009
F7.243155512642015
sS'birthday'
p3010
F5.53840742040359
sS'kleptomaniacs'
p3011
F7.243155512642015
sS'heroes'
p3012
F7.243155512642015
sS'rancire'
p3013
F7.243155512642015
sS'remember'
p3014
F4.717426868333759
sS'deve'
p3015
F7.243155512642015
sS'wikilea'
p3016
F7.243155512642015
sS'devi'
p3017
F7.243155512642015
sS'ueno'
p3018
F7.243155512642015
sS'explicit'
p3019
F7.243155512642015
sS'devs'
p3020
F6.32686478076786
sS'fetishizing'
p3021
F7.243155512642015
sS'clarke'
p3022
F7.243155512642015
sS'michel'
p3023
F7.243155512642015
sS'imagining'
p3024
F7.243155512642015
sS'exclusive'
p3025
F7.243155512642015
sS'tagged'
p3026
F7.243155512642015
sS'serving'
p3027
F7.243155512642015
sS'ender'
p3028
F6.5500083320820695
sS'firefoxos'
p3029
F7.243155512642015
sS'colt'
p3030
F7.243155512642015
sS'haircut'
p3031
F7.243155512642015
sS'midnight'
p3032
F6.83769040453385
sS'kafka'
p3033
F7.243155512642015
sS'aiding'
p3034
F6.32686478076786
sS'ended'
p3035
F6.144543223973905
sS'statistical'
p3036
F7.243155512642015
sS'cold'
p3037
F6.83769040453385
sS'worship'
p3038
F7.243155512642015
sS'blocked'
p3039
F7.243155512642015
sS'acknowledge'
p3040
F7.243155512642015
sS'surveillance'
p3041
F5.53840742040359
sS'suboptimal'
p3042
F7.243155512642015
sS'forms'
p3043
F6.5500083320820695
sS'platform'
p3044
F6.83769040453385
sS'window'
p3045
F7.243155512642015
sS'offers'
p3046
F7.243155512642015
sS'happened'
p3047
F6.5500083320820695
sS'fling'
p3048
F7.243155512642015
sS'conversations'
p3049
F6.83769040453385
sS'rake'
p3050
F7.243155512642015
sS'hamilton'
p3051
F7.243155512642015
sS'half'
p3052
F5.53840742040359
sS'discuss'
p3053
F6.32686478076786
sS'term'
p3054
F6.5500083320820695
sS'respectable'
p3055
F7.243155512642015
sS'galloway'
p3056
F7.243155512642015
sS'corners'
p3057
F7.243155512642015
sS'drop'
p3058
F6.32686478076786
sS'juicing'
p3059
F7.243155512642015
sS'debating'
p3060
F6.83769040453385
sS'realistic'
p3061
F6.83769040453385
sS'intrigued'
p3062
F7.243155512642015
sS'stockholm'
p3063
F7.243155512642015
sS'entirely'
p3064
F6.5500083320820695
sS'domain'
p3065
F6.83769040453385
sS'yeah'
p3066
F3.25417146607774
sS'bradley'
p3067
F5.633717600207914
sS'electorate'
p3068
F7.243155512642015
sS'fires'
p3069
F7.243155512642015
sS'catching'
p3070
F7.243155512642015
sS'year'
p3071
F5.103089349145744
sS'happen'
p3072
F5.633717600207914
sS'deleuzians'
p3073
F7.243155512642015
sS'monitors'
p3074
F7.243155512642015
sS'hacker'
p3075
F6.144543223973905
sS'ultimately'
p3076
F7.243155512642015
sS'opened'
p3077
F6.83769040453385
sS'space'
p3078
F6.5500083320820695
sS'profit'
p3079
F7.243155512642015
sS'tensions'
p3080
F7.243155512642015
sS'irony'
p3081
F6.83769040453385
sS'factory'
p3082
F6.83769040453385
sS'cctvs'
p3083
F7.243155512642015
sS'rational'
p3084
F7.243155512642015
sS'receiving'
p3085
F7.243155512642015
sS'attended'
p3086
F7.243155512642015
sS'theory'
p3087
F5.53840742040359
sS'existed'
p3088
F6.83769040453385
sS'cars'
p3089
F7.243155512642015
sS'saboteurs'
p3090
F7.243155512642015
sS'dependencies'
p3091
F7.243155512642015
sS'rebel'
p3092
F7.243155512642015
sS'warrantless'
p3093
F7.243155512642015
sS'marina'
p3094
F7.243155512642015
sS'card'
p3095
F6.83769040453385
sS'care'
p3096
F5.856861151522124
sS'couldn'
p3097
F6.32686478076786
sS'zomg'
p3098
F7.243155512642015
sS'transition'
p3099
F7.243155512642015
sS'british'
p3100
F7.243155512642015
sS'honest'
p3101
F6.83769040453385
sS'unpaid'
p3102
F7.243155512642015
sS'lindsey'
p3103
F7.243155512642015
sS'place'
p3104
F5.371353335740423
sS'swing'
p3105
F7.243155512642015
sS'styles'
p3106
F7.243155512642015
sS'view'
p3107
F7.243155512642015
sS'origin'
p3108
F7.243155512642015
sS'suspend'
p3109
F7.243155512642015
sS'revenue'
p3110
F7.243155512642015
sS'variables'
p3111
F6.83769040453385
sS'ballmer'
p3112
F7.243155512642015
sS'directly'
p3113
F5.990392544146647
sS'goregrind'
p3114
F7.243155512642015
sS'impossible'
p3115
F6.83769040453385
sS'ring'
p3116
F7.243155512642015
sS'weds'
p3117
F7.243155512642015
sS'angular'
p3118
F6.144543223973905
sS'size'
p3119
F7.243155512642015
sS'checked'
p3120
F7.243155512642015
sS'silent'
p3121
F7.243155512642015
sS'gif'
p3122
F7.243155512642015
sS'iad'
p3123
F6.83769040453385
sS'caught'
p3124
F7.243155512642015
sS'arsehole'
p3125
F7.243155512642015
sS'remotely'
p3126
F7.243155512642015
sS'checker'
p3127
F7.243155512642015
sS'tragic'
p3128
F7.243155512642015
sS'convention'
p3129
F6.5500083320820695
sS'legally'
p3130
F5.856861151522124
sS'white'
p3131
F5.633717600207914
sS'friend'
p3132
F6.83769040453385
sS'hug'
p3133
F7.243155512642015
sS'releases'
p3134
F6.32686478076786
sS'brains'
p3135
F6.83769040453385
sS'huh'
p3136
F5.73907811586574
sS'alan'
p3137
F7.243155512642015
sS'minitest'
p3138
F7.243155512642015
sS'todo'
p3139
F7.243155512642015
sS'copy'
p3140
F6.5500083320820695
sS'semantics'
p3141
F7.243155512642015
sS'wide'
p3142
F7.243155512642015
sS'nathan'
p3143
F7.243155512642015
sS'edition'
p3144
F7.243155512642015
sS'require'
p3145
F7.243155512642015
sS'discernment'
p3146
F7.243155512642015
sS'computer'
p3147
F5.633717600207914
sS'apples'
p3148
F7.243155512642015
sS'fruits'
p3149
F7.243155512642015
sS'outcome'
p3150
F6.83769040453385
sS'orwell'
p3151
F7.243155512642015
sS'browser'
p3152
F6.144543223973905
sS'pre'
p3153
F5.990392544146647
sS'legalizing'
p3154
F7.243155512642015
sS'investors'
p3155
F7.243155512642015
sS'dynamically'
p3156
F7.243155512642015
sS'generalization'
p3157
F7.243155512642015
sS'ant'
p3158
F7.243155512642015
sS'mater'
p3159
F7.243155512642015
sS'breakfast'
p3160
F6.5500083320820695
sS'steveklabnik'
p3161
F5.856861151522124
sS'superman'
p3162
F7.243155512642015
sS'form'
p3163
F6.83769040453385
sS'malte'
p3164
F7.243155512642015
sS'emphasis'
p3165
F7.243155512642015
sS'flowtoys'
p3166
F7.243155512642015
sS'online'
p3167
F6.32686478076786
sS'objective'
p3168
F7.243155512642015
sS'keynotes'
p3169
F7.243155512642015
sS'berne'
p3170
F7.243155512642015
sS'multiple'
p3171
F6.83769040453385
sS'price'
p3172
F7.243155512642015
sS'algebraic'
p3173
F6.83769040453385
sS'serializers'
p3174
F7.243155512642015
sS'america'
p3175
F6.144543223973905
sS'forever'
p3176
F7.243155512642015
sS'notifications'
p3177
F7.243155512642015
sS'preoccupying'
p3178
F7.243155512642015
sS'shooter'
p3179
F7.243155512642015
sS'heaviest'
p3180
F7.243155512642015
sS'sunset'
p3181
F7.243155512642015
sS'pattern'
p3182
F7.243155512642015
sS'mrb'
p3183
F7.243155512642015
sS'rasterization'
p3184
F7.243155512642015
sS'german'
p3185
F6.83769040453385
sS'allegations'
p3186
F7.243155512642015
sS'discovered'
p3187
F7.243155512642015
sS'mashable'
p3188
F7.243155512642015
sS'copyrighted'
p3189
F7.243155512642015
sS'ground'
p3190
F7.243155512642015
sS'upgrade'
p3191
F7.243155512642015
sS'ratio'
p3192
F7.243155512642015
sS'title'
p3193
F6.144543223973905
sS'state'
p3194
F5.163713970962179
sS'crime'
p3195
F7.243155512642015
sS'fickle'
p3196
F7.243155512642015
sS'explicitly'
p3197
F6.83769040453385
sS'xmpp'
p3198
F7.243155512642015
sS'wooo'
p3199
F6.83769040453385
sS'correctly'
p3200
F7.243155512642015
sS'gittip'
p3201
F6.5500083320820695
sS'moo'
p3202
F7.243155512642015
sS'lighter'
p3203
F7.243155512642015
sS'progress'
p3204
F6.83769040453385
sS'freaking'
p3205
F7.243155512642015
sS'reveal'
p3206
F6.83769040453385
sS'outraged'
p3207
F7.243155512642015
sS'naked'
p3208
F7.243155512642015
sS'jokes'
p3209
F6.5500083320820695
sS'paper'
p3210
F6.83769040453385
sS'losers'
p3211
F7.243155512642015
sS'discussing'
p3212
F6.83769040453385
sS'burst'
p3213
F7.243155512642015
sS'replies'
p3214
F6.144543223973905
sS'keynote'
p3215
F7.243155512642015
sS'famine'
p3216
F7.243155512642015
sS'actively'
p3217
F7.243155512642015
sS'college'
p3218
F6.144543223973905
sS'ignores'
p3219
F6.83769040453385
sS'parking'
p3220
F7.243155512642015
sS'stanley'
p3221
F7.243155512642015
sS'occupygezi'
p3222
F5.856861151522124
sS'violates'
p3223
F7.243155512642015
sS'concern'
p3224
F6.83769040453385
sS'suspects'
p3225
F6.83769040453385
sS'visceral'
p3226
F7.243155512642015
sS'lindell'
p3227
F7.243155512642015
sS'federal'
p3228
F6.83769040453385
sS'review'
p3229
F6.144543223973905
sS'definite'
p3230
F7.243155512642015
sS'mandarin'
p3231
F7.243155512642015
sS'communicators'
p3232
F7.243155512642015
sS'notice'
p3233
F6.83769040453385
sS'receivers'
p3234
F7.243155512642015
sS'attn'
p3235
F7.243155512642015
sS'article'
p3236
F5.371353335740423
sS'pixels'
p3237
F7.243155512642015
sS'reaction'
p3238
F7.243155512642015
sS'acquiring'
p3239
F7.243155512642015
sS'resides'
p3240
F7.243155512642015
sS'successes'
p3241
F7.243155512642015
sS'backbreaking'
p3242
F7.243155512642015
sS'quiet'
p3243
F7.243155512642015
sS'contract'
p3244
F6.83769040453385
sS'senator'
p3245
F6.83769040453385
sS'rustlang'
p3246
F4.845260239843644
sS'fffuuu'
p3247
F7.243155512642015
sS'jammer'
p3248
F7.243155512642015
sS'overview'
p3249
F7.243155512642015
sS'poll'
p3250
F7.243155512642015
sS'tropes'
p3251
F7.243155512642015
sS'turkey'
p3252
F5.53840742040359
sS'zimmermann'
p3253
F7.243155512642015
sS'subscribed'
p3254
F7.243155512642015
sS'cares'
p3255
F6.83769040453385
sS'informed'
p3256
F6.5500083320820695
sS'jerks'
p3257
F7.243155512642015
sS'railsgirls'
p3258
F6.83769040453385
sS'peaceful'
p3259
F6.83769040453385
sS'linguistic'
p3260
F7.243155512642015
sS'rebuilt'
p3261
F7.243155512642015
sS'disclosed'
p3262
F7.243155512642015
sS'engine'
p3263
F7.243155512642015
sS'direction'
p3264
F6.5500083320820695
sS'figured'
p3265
F7.243155512642015
sS'careful'
p3266
F7.243155512642015
sS'irrelevant'
p3267
F7.243155512642015
sS'protocols'
p3268
F7.243155512642015
sS'pilot'
p3269
F7.243155512642015
sS'paying'
p3270
F6.32686478076786
sS'developing'
p3271
F7.243155512642015
sS'amend'
p3272
F6.83769040453385
sS'accommodating'
p3273
F7.243155512642015
sS'chinatown'
p3274
F6.83769040453385
sS'cash'
p3275
F6.83769040453385
sS'career'
p3276
F7.243155512642015
sS'yisss'
p3277
F7.243155512642015
sS'nyt'
p3278
F6.83769040453385
sS'marxists'
p3279
F7.243155512642015
sS'telephone'
p3280
F7.243155512642015
sS'parse'
p3281
F7.243155512642015
sS'telephony'
p3282
F7.243155512642015
sS'property'
p3283
F6.32686478076786
sS'stickers'
p3284
F7.243155512642015
sS'worry'
p3285
F6.83769040453385
sS'annoying'
p3286
F7.243155512642015
sS'author'
p3287
F6.83769040453385
sS'media'
p3288
F5.73907811586574
sS'granted'
p3289
F7.243155512642015
sS'medic'
p3290
F7.243155512642015
sS'reminded'
p3291
F6.5500083320820695
sS'prote'
p3292
F7.243155512642015
sS'trip'
p3293
F5.73907811586574
sS'figuring'
p3294
F7.243155512642015
sS'html'
p3295
F6.144543223973905
sS'followers'
p3296
F7.243155512642015
sS'capybara'
p3297
F7.243155512642015
sS'buys'
p3298
F6.83769040453385
sS'reminder'
p3299
F6.32686478076786
sS'document'
p3300
F6.83769040453385
sS'events'
p3301
F7.243155512642015
sS'status'
p3302
F7.243155512642015
sS'favorited'
p3303
F7.243155512642015
sS'mockery'
p3304
F7.243155512642015
sS'wtfs'
p3305
F7.243155512642015
sS'nest'
p3306
F7.243155512642015
sS'driver'
p3307
F7.243155512642015
sS'drives'
p3308
F6.83769040453385
sS'driven'
p3309
F6.83769040453385
sS'statue'
p3310
F7.243155512642015
sS'changing'
p3311
F7.243155512642015
sS'tradition'
p3312
F6.83769040453385
sS'mentally'
p3313
F6.83769040453385
sS'complained'
p3314
F7.243155512642015
sS'theater'
p3315
F7.243155512642015
sS'charges'
p3316
F6.32686478076786
sS'coordinate'
p3317
F7.243155512642015
sS'model'
p3318
F6.32686478076786
sS'bodies'
p3319
F7.243155512642015
sS'charged'
p3320
F6.5500083320820695
sS'taxi'
p3321
F7.243155512642015
sS'captures'
p3322
F7.243155512642015
sS'unconstitutional'
p3323
F7.243155512642015
sS'restrooms'
p3324
F6.83769040453385
sS'violent'
p3325
F7.243155512642015
sS'kill'
p3326
F6.83769040453385
sS'unicode'
p3327
F6.5500083320820695
sS'touch'
p3328
F6.32686478076786
sS'polish'
p3329
F7.243155512642015
sS'speed'
p3330
F6.83769040453385
sS'guides'
p3331
F7.243155512642015
sS'halfway'
p3332
F7.243155512642015
sS'announcement'
p3333
F6.5500083320820695
sS'death'
p3334
F6.144543223973905
sS'assemblages'
p3335
F6.5500083320820695
sS'metaprogramming'
p3336
F7.243155512642015
sS'feminist'
p3337
F7.243155512642015
sS'thinking'
p3338
F5.045930935305795
sS'mmap'
p3339
F7.243155512642015
sS'desktop'
p3340
F6.32686478076786
sS'blog'
p3341
F4.717426868333759
sS'setting'
p3342
F6.5500083320820695
sS'prezi'
p3343
F7.243155512642015
sS'struck'
p3344
F7.243155512642015
sS'disrupt'
p3345
F7.243155512642015
sS'scheduled'
p3346
F6.83769040453385
sS'kills'
p3347
F7.243155512642015
sS'read'
p3348
F4.065101682294069
sS'delhi'
p3349
F6.83769040453385
sS'psf'
p3350
F7.243155512642015
sS'gonna'
p3351
F5.990392544146647
sS'traffic'
p3352
F6.32686478076786
sS'politely'
p3353
F7.243155512642015
sS'justice'
p3354
F6.83769040453385
sS'amp'
p3355
F5.297245363586701
sS'accepted'
p3356
F6.83769040453385
sS'lady'
p3357
F6.83769040453385
sS'utterances'
p3358
F7.243155512642015
sS'collective'
p3359
F7.243155512642015
sS'bracelet'
p3360
F7.243155512642015
sS'roll'
p3361
F7.243155512642015
sS'benefit'
p3362
F7.243155512642015
sS'donations'
p3363
F6.83769040453385
sS'haram'
p3364
F7.243155512642015
sS'tower'
p3365
F7.243155512642015
sS'endorsed'
p3366
F7.243155512642015
sS'attempting'
p3367
F7.243155512642015
sS'twelve'
p3368
F7.243155512642015
sS'semver'
p3369
F7.243155512642015
sS'competition'
p3370
F6.83769040453385
sS'table'
p3371
F7.243155512642015
sS'provided'
p3372
F7.243155512642015
sS'mooc'
p3373
F7.243155512642015
sS'venn'
p3374
F7.243155512642015
sS'unlocked'
p3375
F7.243155512642015
sS'ported'
p3376
F7.243155512642015
sS'homenim'
p3377
F7.243155512642015
sS'legal'
p3378
F6.144543223973905
sS'models'
p3379
F6.83769040453385
sS'aweosme'
p3380
F7.243155512642015
sS'hipster'
p3381
F7.243155512642015
sS'ahahahah'
p3382
F6.83769040453385
sS'forks'
p3383
F7.243155512642015
sS'holywood'
p3384
F7.243155512642015
sS'freed'
p3385
F7.243155512642015
sS'outage'
p3386
F7.243155512642015
sS'wheat'
p3387
F6.83769040453385
sS'business'
p3388
F7.243155512642015
sS'quit'
p3389
F6.83769040453385
sS'rohrer'
p3390
F7.243155512642015
sS'nails'
p3391
F7.243155512642015
sS'unease'
p3392
F7.243155512642015
sS'skrillex'
p3393
F6.83769040453385
sS'polite'
p3394
F6.83769040453385
sS'crytpo'
p3395
F7.243155512642015
sS'ontology'
p3396
F6.83769040453385
sS'comparison'
p3397
F6.83769040453385
sS'central'
p3398
F7.243155512642015
sS'discussed'
p3399
F7.243155512642015
sS'thousands'
p3400
F6.5500083320820695
sS'srv'
p3401
F7.243155512642015
sS'stand'
p3402
F6.83769040453385
sS'protests'
p3403
F7.243155512642015
sS'inclusion'
p3404
F7.243155512642015
sS'communication'
p3405
F7.243155512642015
sS'garb'
p3406
F7.243155512642015
sS'snapchat'
p3407
F7.243155512642015
sS'authorities'
p3408
F7.243155512642015
sS'accounts'
p3409
F6.83769040453385
sS'libwapcaplet'
p3410
F7.243155512642015
sS'log'
p3411
F6.5500083320820695
sS'prepare'
p3412
F7.243155512642015
sS'removing'
p3413
F6.32686478076786
sS'needless'
p3414
F7.243155512642015
sS'racism'
p3415
F6.5500083320820695
sS'lol'
p3416
F5.633717600207914
sS'cato'
p3417
F7.243155512642015
sS'start'
p3418
F6.144543223973905
sS'cats'
p3419
F7.243155512642015
sS'racist'
p3420
F7.243155512642015
sS'low'
p3421
F7.243155512642015
sS'lot'
p3422
F4.940570419647969
sS'cultures'
p3423
F7.243155512642015
sS'alleges'
p3424
F7.243155512642015
sS'valley'
p3425
F6.32686478076786
sS'waza'
p3426
F7.243155512642015
sS'jut'
p3427
F7.243155512642015
sS'podcast'
p3428
F6.32686478076786
sS'faster'
p3429
F7.243155512642015
sS'hire'
p3430
F7.243155512642015
sS'waste'
p3431
F7.243155512642015
sS'circulation'
p3432
F7.243155512642015
sS'default'
p3433
F6.144543223973905
sS'summits'
p3434
F7.243155512642015
sS'serialized'
p3435
F7.243155512642015
sS'define'
p3436
F6.5500083320820695
sS'beliefs'
p3437
F7.243155512642015
sS'taylor'
p3438
F7.243155512642015
sS'contributors'
p3439
F7.243155512642015
sS'tektekci'
p3440
F7.243155512642015
sS'octokit'
p3441
F7.243155512642015
sS'sales'
p3442
F7.243155512642015
sS'cbp'
p3443
F6.83769040453385
sS'intro'
p3444
F6.83769040453385
sS'politics'
p3445
F6.32686478076786
sS'gradients'
p3446
F7.243155512642015
sS'nerd'
p3447
F7.243155512642015
sS'incorrect'
p3448
F7.243155512642015
sS'subtext'
p3449
F7.243155512642015
sS'piracy'
p3450
F7.243155512642015
sS'deserve'
p3451
F6.32686478076786
sS'brails'
p3452
F6.32686478076786
sS'forcing'
p3453
F7.243155512642015
sS'deleuzian'
p3454
F7.243155512642015
sS'paddy'
p3455
F7.243155512642015
sS'elgamal'
p3456
F7.243155512642015
sS'oneself'
p3457
F7.243155512642015
sS'separate'
p3458
F7.243155512642015
sS'boing'
p3459
F7.243155512642015
sS'time'
p3460
F3.382425801601419
sS'dubs'
p3461
F7.243155512642015
sS'includes'
p3462
F7.243155512642015
sS'gutenberg'
p3463
F7.243155512642015
sS'peak'
p3464
F6.83769040453385
sS'coverage'
p3465
F7.243155512642015
sS'included'
p3466
F6.83769040453385
sS'aeroflot'
p3467
F7.243155512642015
sS'building'
p3468
F6.83769040453385
sS'assert'
p3469
F7.243155512642015
sS'applause'
p3470
F7.243155512642015
sS'calls'
p3471
F6.144543223973905
sS'wife'
p3472
F7.243155512642015
sS'wifi'
p3473
F6.83769040453385
sS'curve'
p3474
F7.243155512642015
sS'internalized'
p3475
F7.243155512642015
sS'treason'
p3476
F7.243155512642015
sS'apparel'
p3477
F7.243155512642015
sS'vined'
p3478
F7.243155512642015
sS'nayon'
p3479
F7.243155512642015
sS'lack'
p3480
F6.83769040453385
sS'guattari'
p3481
F6.83769040453385
sS'month'
p3482
F5.53840742040359
sS'coach'
p3483
F7.243155512642015
sS'follow'
p3484
F6.144543223973905
sS'disk'
p3485
F6.83769040453385
sS'decisions'
p3486
F6.83769040453385
sS'ptr'
p3487
F7.243155512642015
sS'hmmm'
p3488
F6.144543223973905
sS'referring'
p3489
F7.243155512642015
sS'participants'
p3490
F7.243155512642015
sS'thursday'
p3491
F6.83769040453385
sS'program'
p3492
F6.144543223973905
sS'safety'
p3493
F6.5500083320820695
sS'presentation'
p3494
F6.83769040453385
sS'belonging'
p3495
F7.243155512642015
sS'woman'
p3496
F5.856861151522124
sS'worse'
p3497
F5.73907811586574
sS'song'
p3498
F6.83769040453385
sS'mpl'
p3499
F7.243155512642015
sS'faq'
p3500
F7.243155512642015
sS'imessage'
p3501
F7.243155512642015
sS'focus'
p3502
F7.243155512642015
sS'worst'
p3503
F6.5500083320820695
sS'decide'
p3504
F7.243155512642015
sS'fam'
p3505
F7.243155512642015
sS'ticket'
p3506
F6.5500083320820695
sS'securely'
p3507
F7.243155512642015
sS'osi'
p3508
F6.5500083320820695
sS'list'
p3509
F5.22825249209975
sS'intimidate'
p3510
F7.243155512642015
sS'study'
p3511
F7.243155512642015
sS'anal'
p3512
F7.243155512642015
sS'conflicted'
p3513
F6.83769040453385
sS'tel'
p3514
F7.243155512642015
sS'instagram'
p3515
F7.243155512642015
sS'ten'
p3516
F7.243155512642015
sS'streets'
p3517
F6.5500083320820695
sS'ted'
p3518
F7.243155512642015
sS'synergy'
p3519
F7.243155512642015
sS'rate'
p3520
F7.243155512642015
sS'design'
p3521
F5.990392544146647
sS'casual'
p3522
F7.243155512642015
sS'canonical'
p3523
F7.243155512642015
sS'conscience'
p3524
F6.83769040453385
sS'chalk'
p3525
F6.83769040453385
sS'darkness'
p3526
F7.243155512642015
sS'consumers'
p3527
F7.243155512642015
sS'deeply'
p3528
F7.243155512642015
sS'suv'
p3529
F7.243155512642015
sS'version'
p3530
F5.990392544146647
sS'sur'
p3531
F7.243155512642015
sS'intersect'
p3532
F7.243155512642015
sS'certificates'
p3533
F7.243155512642015
sS'learned'
p3534
F6.5500083320820695
sS'guns'
p3535
F6.83769040453385
sS'edited'
p3536
F7.243155512642015
sS'christian'
p3537
F7.243155512642015
sS'rudimentary'
p3538
F7.243155512642015
sS'modify'
p3539
F6.83769040453385
sS'answers'
p3540
F7.243155512642015
sS'tracks'
p3541
F7.243155512642015
sS'anticipation'
p3542
F7.243155512642015
sS'directions'
p3543
F7.243155512642015
sS'strong'
p3544
F5.53840742040359
sS'zone'
p3545
F6.83769040453385
sS'fielding'
p3546
F7.243155512642015
sS'allows'
p3547
F6.5500083320820695
sS'amount'
p3548
F6.83769040453385
sS'base'
p3549
F6.5500083320820695
sS'horrified'
p3550
F7.243155512642015
sS'options'
p3551
F6.5500083320820695
sS'soonish'
p3552
F6.83769040453385
sS'family'
p3553
F6.83769040453385
sS'mever'
p3554
F7.243155512642015
sS'redditrequest'
p3555
F7.243155512642015
sS'texts'
p3556
F7.243155512642015
sS'semester'
p3557
F7.243155512642015
sS'aimed'
p3558
F7.243155512642015
sS'toys'
p3559
F6.83769040453385
sS'attendant'
p3560
F7.243155512642015
sS'emoji'
p3561
F6.83769040453385
sS'takes'
p3562
F5.73907811586574
sS'generate'
p3563
F6.83769040453385
sS'shithnsays'
p3564
F7.243155512642015
sS'injury'
p3565
F7.243155512642015
sS'markets'
p3566
F6.83769040453385
sS'flat'
p3567
F6.5500083320820695
sS'hoffman'
p3568
F7.243155512642015
sS'terror'
p3569
F7.243155512642015
sS'flag'
p3570
F7.243155512642015
sS'basically'
p3571
F5.045930935305795
sS'broke'
p3572
F6.83769040453385
sS'benefits'
p3573
F7.243155512642015
sS'recompilation'
p3574
F7.243155512642015
sS'glad'
p3575
F5.4513960434139594
sS'hardware'
p3576
F6.32686478076786
sS'parable'
p3577
F7.243155512642015
sS'debates'
p3578
F7.243155512642015
sS'equation'
p3579
F7.243155512642015
sS'firstworldproblems'
p3580
F6.83769040453385
sS'entrapment'
p3581
F7.243155512642015
sS'trauma'
p3582
F7.243155512642015
sS'yemen'
p3583
F7.243155512642015
sS'history'
p3584
F5.990392544146647
sS'embarrassing'
p3585
F7.243155512642015
sS'libertarian'
p3586
F6.32686478076786
sS'phrase'
p3587
F6.83769040453385
sS'airplane'
p3588
F7.243155512642015
sS'icing'
p3589
F7.243155512642015
sS'influenced'
p3590
F7.243155512642015
sS'court'
p3591
F5.73907811586574
sS'recursive'
p3592
F7.243155512642015
sS'terribly'
p3593
F7.243155512642015
sS'chops'
p3594
F7.243155512642015
sS'breaking'
p3595
F6.32686478076786
sS'cleansing'
p3596
F7.243155512642015
sS'influences'
p3597
F7.243155512642015
sS'explains'
p3598
F6.5500083320820695
sS'distro'
p3599
F6.5500083320820695
sS'rapists'
p3600
F6.5500083320820695
sS'algebra'
p3601
F6.83769040453385
sS'derived'
p3602
F6.83769040453385
sS'lighting'
p3603
F7.243155512642015
sS'pariwithme'
p3604
F7.243155512642015
sS'derives'
p3605
F7.243155512642015
sS'proclaimed'
p3606
F7.243155512642015
sS'undergrads'
p3607
F7.243155512642015
sS'short'
p3608
F6.5500083320820695
sS'prefers'
p3609
F7.243155512642015
sS'documentation'
p3610
F6.32686478076786
sS'bugs'
p3611
F7.243155512642015
sS'stasi'
p3612
F7.243155512642015
sS'banks'
p3613
F7.243155512642015
sS'dream'
p3614
F6.5500083320820695
sS'committer'
p3615
F7.243155512642015
sS'help'
p3616
F4.678206155180478
sS'september'
p3617
F6.32686478076786
sS'developed'
p3618
F7.243155512642015
sS'mission'
p3619
F7.243155512642015
sS'disabled'
p3620
F7.243155512642015
sS'held'
p3621
F7.243155512642015
sS'ffi'
p3622
F7.243155512642015
sS'committed'
p3623
F6.83769040453385
sS'developer'
p3624
F6.144543223973905
sS'style'
p3625
F6.5500083320820695
sS'selenium'
p3626
F7.243155512642015
sS'absence'
p3627
F7.243155512642015
sS'parts'
p3628
F7.243155512642015
sS'systems'
p3629
F6.144543223973905
sS'founders'
p3630
F7.243155512642015
sS'governments'
p3631
F6.83769040453385
sS'fool'
p3632
F7.243155512642015
sS'wouldn'
p3633
F5.633717600207914
sS'evening'
p3634
F6.144543223973905
sS'return'
p3635
F6.83769040453385
sS'ceo'
p3636
F7.243155512642015
sS'unusable'
p3637
F7.243155512642015
sS'framework'
p3638
F6.5500083320820695
sS'starbucks'
p3639
F6.83769040453385
sS'hackathon'
p3640
F7.243155512642015
sS'bigger'
p3641
F6.5500083320820695
sS'instructions'
p3642
F7.243155512642015
sS'ifs'
p3643
F7.243155512642015
sS'fully'
p3644
F6.83769040453385
sS'presented'
p3645
F7.243155512642015
sS'refresh'
p3646
F6.83769040453385
sS'gnight'
p3647
F7.243155512642015
sS'stopped'
p3648
F6.32686478076786
sS'referred'
p3649
F6.83769040453385
sS'heavy'
p3650
F6.5500083320820695
sS'nsafiles'
p3651
F6.83769040453385
sS'dichotomy'
p3652
F6.83769040453385
sS'anarcho'
p3653
F7.243155512642015
sS'expect'
p3654
F6.5500083320820695
sS'quantum'
p3655
F7.243155512642015
sS'evens'
p3656
F7.243155512642015
sS'butthurt'
p3657
F7.243155512642015
sS'event'
p3658
F6.144543223973905
sS'gemfile'
p3659
F6.83769040453385
sS'presumptuous'
p3660
F7.243155512642015
sS'cointelpro'
p3661
F6.83769040453385
sS'robert'
p3662
F7.243155512642015
sS'domestically'
p3663
F7.243155512642015
sS'wolverine'
p3664
F7.243155512642015
sS'health'
p3665
F7.243155512642015
sS'lord'
p3666
F7.243155512642015
sS'lolz'
p3667
F7.243155512642015
sS'issue'
p3668
F5.297245363586701
sS'roofs'
p3669
F7.243155512642015
sS'ciphers'
p3670
F7.243155512642015
sS'pua'
p3671
F7.243155512642015
sS'pub'
p3672
F6.5500083320820695
sS'reason'
p3673
F5.297245363586701
sS'peoplehate'
p3674
F7.243155512642015
sS'dire'
p3675
F7.243155512642015
sS'teach'
p3676
F6.32686478076786
sS'guy'
p3677
F5.53840742040359
sS'bash'
p3678
F7.243155512642015
sS'asl'
p3679
F7.243155512642015
sS'thrown'
p3680
F7.243155512642015
sS'thread'
p3681
F5.53840742040359
sS'terrible'
p3682
F5.990392544146647
sS'cheering'
p3683
F7.243155512642015
sS'american'
p3684
F6.144543223973905
sS'expecting'
p3685
F6.32686478076786
sS'kung'
p3686
F7.243155512642015
sS'threat'
p3687
F6.83769040453385
sS'apocalypse'
p3688
F7.243155512642015
sS'throws'
p3689
F7.243155512642015
sS'feed'
p3690
F7.243155512642015
sS'critcode'
p3691
F5.990392544146647
sS'feel'
p3692
F5.22825249209975
sS'radical'
p3693
F7.243155512642015
sS'feet'
p3694
F7.243155512642015
sS'fucked'
p3695
F6.5500083320820695
sS'brave'
p3696
F7.243155512642015
sS'fees'
p3697
F6.83769040453385
sS'warts'
p3698
F7.243155512642015
sS'gpl'
p3699
F5.73907811586574
sS'passes'
p3700
F6.5500083320820695
sS'story'
p3701
F5.4513960434139594
sS'script'
p3702
F6.5500083320820695
sS'gpg'
p3703
F6.83769040453385
sS'rails'
p3704
F3.8932514253674095
sS'dug'
p3705
F7.243155512642015
sS'station'
p3706
F7.243155512642015
sS'storm'
p3707
F7.243155512642015
sS'sigh'
p3708
F5.633717600207914
sS'gpu'
p3709
F7.243155512642015
sS'moar'
p3710
F7.243155512642015
sS'store'
p3711
F5.990392544146647
sS'selling'
p3712
F7.243155512642015
sS'option'
p3713
F6.32686478076786
sS'boilerplate'
p3714
F7.243155512642015
sS'trapped'
p3715
F7.243155512642015
sS'recursively'
p3716
F7.243155512642015
sS'hotel'
p3717
F5.990392544146647
sS'luckily'
p3718
F7.243155512642015
sS'authors'
p3719
F6.83769040453385
sS'translation'
p3720
F7.243155512642015
sS'upvoted'
p3721
F7.243155512642015
sS'convinced'
p3722
F6.83769040453385
sS'jquery'
p3723
F7.243155512642015
sS'kind'
p3724
F5.53840742040359
sS'double'
p3725
F6.83769040453385
sS'instruction'
p3726
F7.243155512642015
sS'finances'
p3727
F7.243155512642015
sS'alluding'
p3728
F7.243155512642015
sS'cost'
p3729
F6.144543223973905
sS'tubgirl'
p3730
F7.243155512642015
sS'ecuador'
p3731
F6.83769040453385
sS'str'
p3732
F6.83769040453385
sS'restful'
p3733
F7.243155512642015
sS'uniforms'
p3734
F7.243155512642015
sS'imports'
p3735
F7.243155512642015
sS'suspicious'
p3736
F6.83769040453385
sS'substantial'
p3737
F7.243155512642015
sS'alike'
p3738
F7.243155512642015
sS'cleaned'
p3739
F6.83769040453385
sS'organs'
p3740
F7.243155512642015
sS'lie'
p3741
F6.5500083320820695
sS'nights'
p3742
F6.83769040453385
sS'draper'
p3743
F6.83769040453385
sS'lib'
p3744
F6.83769040453385
sS'anarchism'
p3745
F7.243155512642015
sS'officers'
p3746
F6.83769040453385
sS'lit'
p3747
F7.243155512642015
sS'empirically'
p3748
F7.243155512642015
sS'labour'
p3749
F7.243155512642015
sS'useless'
p3750
F7.243155512642015
sS'finding'
p3751
F7.243155512642015
sS'donor'
p3752
F7.243155512642015
sS'eff'
p3753
F6.83769040453385
sS'experienced'
p3754
F7.243155512642015
sS'hires'
p3755
F7.243155512642015
sS'electric'
p3756
F7.243155512642015
sS'warnings'
p3757
F7.243155512642015
sS'quote'
p3758
F6.5500083320820695
sS'reach'
p3759
F7.243155512642015
sS'sponsored'
p3760
F6.83769040453385
sS'alpha'
p3761
F7.243155512642015
sS'measured'
p3762
F6.83769040453385
sS'screenwriter'
p3763
F7.243155512642015
sS'achievement'
p3764
F7.243155512642015
sS'salary'
p3765
F6.83769040453385
sS'gentrification'
p3766
F6.5500083320820695
sS'windows'
p3767
F6.5500083320820695
sS'clear'
p3768
F5.53840742040359
sS'unreasonable'
p3769
F7.243155512642015
sS'clean'
p3770
F6.83769040453385
sS'usual'
p3771
F6.5500083320820695
sS'institutions'
p3772
F7.243155512642015
sS'lying'
p3773
F6.83769040453385
sS'cdg'
p3774
F6.5500083320820695
sS'mexico'
p3775
F7.243155512642015
sS'celebrities'
p3776
F7.243155512642015
sS'okcupid'
p3777
F7.243155512642015
sS'rts'
p3778
F6.83769040453385
sS'font'
p3779
F7.243155512642015
sS'ipads'
p3780
F7.243155512642015
sS'bfg'
p3781
F7.243155512642015
sS'sourced'
p3782
F7.243155512642015
sS'parameters'
p3783
F6.32686478076786
sS'paranoid'
p3784
F6.83769040453385
sS'assertion'
p3785
F7.243155512642015
sS'flights'
p3786
F7.243155512642015
sS'pretty'
p3787
F4.502315488716813
sS'feminists'
p3788
F6.32686478076786
sS'circle'
p3789
F7.243155512642015
sS'whiskys'
p3790
F7.243155512642015
sS'xmonad'
p3791
F6.5500083320820695
sS'hit'
p3792
F5.73907811586574
sS'compiled'
p3793
F6.5500083320820695
sS'theoretician'
p3794
F7.243155512642015
sS'feels'
p3795
F6.144543223973905
sS'competing'
p3796
F7.243155512642015
sS'emails'
p3797
F7.243155512642015
sS'compiler'
p3798
F6.32686478076786
sS'typos'
p3799
F7.243155512642015
sS'querying'
p3800
F7.243155512642015
sS'ummmm'
p3801
F7.243155512642015
sS'adhering'
p3802
F7.243155512642015
sS'gloves'
p3803
F7.243155512642015
sS'recommendations'
p3804
F7.243155512642015
sS'sustainable'
p3805
F6.83769040453385
sS'wrote'
p3806
F5.633717600207914
sS'ars'
p3807
F7.243155512642015
sS'achieved'
p3808
F7.243155512642015
sS'intelligence'
p3809
F7.243155512642015
sS'manning'
p3810
F4.991863714035519
sS'defense'
p3811
F7.243155512642015
sS'bare'
p3812
F7.243155512642015
sS'transportation'
p3813
F7.243155512642015
sS'jemalloc'
p3814
F6.83769040453385
sS'recording'
p3815
F7.243155512642015
sS'threats'
p3816
F7.243155512642015
sS'pictures'
p3817
F7.243155512642015
sS'wow'
p3818
F5.297245363586701
sS'familiarity'
p3819
F7.243155512642015
sS'woo'
p3820
F6.144543223973905
sS'won'
p3821
F5.53840742040359
sS'incompatibility'
p3822
F7.243155512642015
sS'formatter'
p3823
F7.243155512642015
sS'numerous'
p3824
F7.243155512642015
sS'profiling'
p3825
F7.243155512642015
sS'creating'
p3826
F7.243155512642015
sS'missing'
p3827
F5.856861151522124
sS'attention'
p3828
F7.243155512642015
sS'franchise'
p3829
F7.243155512642015
sS'lap'
p3830
F7.243155512642015
sS'abruptly'
p3831
F7.243155512642015
sS'water'
p3832
F6.5500083320820695
sS'mega'
p3833
F5.633717600207914
sS'secrets'
p3834
F6.83769040453385
sS'dtw'
p3835
F6.83769040453385
sS'minorities'
p3836
F7.243155512642015
sS'jawed'
p3837
F7.243155512642015
sS'context'
p3838
F6.5500083320820695
sS'finds'
p3839
F6.83769040453385
sS'flies'
p3840
F7.243155512642015
sS'distress'
p3841
F6.83769040453385
sS'reasons'
p3842
F7.243155512642015
sS'sweet'
p3843
F6.5500083320820695
sS'cryptosystem'
p3844
F7.243155512642015
sS'icedove'
p3845
F6.32686478076786
sS'likes'
p3846
F7.243155512642015
sS'linux'
p3847
F4.845260239843644
sS'dui'
p3848
F7.243155512642015
sS'naps'
p3849
F7.243155512642015
sS'political'
p3850
F6.32686478076786
sS'strategy'
p3851
F7.243155512642015
sS'describes'
p3852
F7.243155512642015
sS'complicated'
p3853
F6.83769040453385
sS'maintenance'
p3854
F6.83769040453385
sS'whoa'
p3855
F7.243155512642015
sS'institutionalized'
p3856
F7.243155512642015
sS'lived'
p3857
F6.5500083320820695
sS'flight'
p3858
F4.940570419647969
sS'citizen'
p3859
F7.243155512642015
sS'rspec'
p3860
F6.83769040453385
sS'vaguely'
p3861
F6.83769040453385
sS'lives'
p3862
F7.243155512642015
sS'stolen'
p3863
F7.243155512642015
sS'coerced'
p3864
F7.243155512642015
sS'indefinitely'
p3865
F7.243155512642015
sS'redhack'
p3866
F7.243155512642015
sS'socialist'
p3867
F7.243155512642015
sS'expressly'
p3868
F7.243155512642015
sS'bikini'
p3869
F7.243155512642015
sS'socialism'
p3870
F6.5500083320820695
sS'smart'
p3871
F7.243155512642015
sS'behavior'
p3872
F7.243155512642015
sS'fleet'
p3873
F7.243155512642015
sS'transcripts'
p3874
F6.83769040453385
sS'loop'
p3875
F7.243155512642015
sS'engineers'
p3876
F7.243155512642015
sS'funded'
p3877
F6.83769040453385
sS'rip'
p3878
F7.243155512642015
sS'hoax'
p3879
F7.243155512642015
sS'rio'
p3880
F6.5500083320820695
sS'skype'
p3881
F7.243155512642015
sS'ready'
p3882
F6.83769040453385
sS'rid'
p3883
F6.144543223973905
sS'conter'
p3884
F7.243155512642015
sS'queue'
p3885
F7.243155512642015
sS'shirt'
p3886
F7.243155512642015
sS'grant'
p3887
F7.243155512642015
sS'philly'
p3888
F7.243155512642015
sS'hadoop'
p3889
F7.243155512642015
sS'makeshift'
p3890
F7.243155512642015
sS'grand'
p3891
F7.243155512642015
sS'composition'
p3892
F7.243155512642015
sS'conflict'
p3893
F7.243155512642015
sS'higher'
p3894
F6.83769040453385
sS'temporary'
p3895
F6.83769040453385
sS'ratings'
p3896
F7.243155512642015
sS'gemrc'
p3897
F7.243155512642015
sS'ustream'
p3898
F7.243155512642015
sS'moving'
p3899
F5.73907811586574
sS'user'
p3900
F6.32686478076786
sS'hmmmmmm'
p3901
F6.5500083320820695
sS'database'
p3902
F7.243155512642015
sS'edge'
p3903
F6.5500083320820695
sS'machinery'
p3904
F7.243155512642015
sS'islamophobes'
p3905
F7.243155512642015
sS'frappuccino'
p3906
F6.144543223973905
sS'precedence'
p3907
F7.243155512642015
sS'direnbesiktas'
p3908
F7.243155512642015
sS'reviewed'
p3909
F7.243155512642015
sS'inactive'
p3910
F7.243155512642015
sS'questions'
p3911
F7.243155512642015
sS'startups'
p3912
F6.32686478076786
sS'prince'
p3913
F7.243155512642015
sS'gems'
p3914
F6.32686478076786
sS'loading'
p3915
F7.243155512642015
sS'workers'
p3916
F6.83769040453385
sS'canisters'
p3917
F6.83769040453385
sS'shortcut'
p3918
F7.243155512642015
sS'barack'
p3919
F7.243155512642015
sS'meritocracy'
p3920
F7.243155512642015
sS'soooooo'
p3921
F6.83769040453385
sS'inducing'
p3922
F7.243155512642015
sS'violations'
p3923
F6.83769040453385
sS'guarantees'
p3924
F6.83769040453385
sS'remaining'
p3925
F7.243155512642015
sS'march'
p3926
F6.5500083320820695
sS'showing'
p3927
F6.5500083320820695
sS'advocate'
p3928
F7.243155512642015
sS'game'
p3929
F4.991863714035519
sS'kthx'
p3930
F7.243155512642015
sS'reoccupy'
p3931
F7.243155512642015
sS'outright'
p3932
F7.243155512642015
sS'activex'
p3933
F7.243155512642015
sS'fuckedupandbullshit'
p3934
F7.243155512642015
sS'admittedly'
p3935
F6.83769040453385
sS'signal'
p3936
F7.243155512642015
sS'avatars'
p3937
F7.243155512642015
sS'collect'
p3938
F7.243155512642015
sS'spirited'
p3939
F7.243155512642015
sS'variant'
p3940
F7.243155512642015
sS'nairobi'
p3941
F6.83769040453385
sS'ecology'
p3942
F7.243155512642015
sS'fucking'
p3943
F5.990392544146647
sS'fathers'
p3944
F7.243155512642015
sS'rot'
p3945
F7.243155512642015
sS'litter'
p3946
F7.243155512642015
sS'economic'
p3947
F6.32686478076786
sS'truther'
p3948
F7.243155512642015
sS'lingers'
p3949
F7.243155512642015
sS'macs'
p3950
F7.243155512642015
sS'sanitizing'
p3951
F7.243155512642015
sS'scmp'
p3952
F7.243155512642015
sS'minimal'
p3953
F6.83769040453385
sS'eating'
p3954
F6.83769040453385
sS'processing'
p3955
F7.243155512642015
sS'raided'
p3956
F7.243155512642015
sS'infra'
p3957
F7.243155512642015
sS'zombie'
p3958
F7.243155512642015
sS'step'
p3959
F6.5500083320820695
sS'elixir'
p3960
F7.243155512642015
sS'refuses'
p3961
F7.243155512642015
sS'cannons'
p3962
F7.243155512642015
sS'taboo'
p3963
F6.83769040453385
sS'pipeline'
p3964
F6.83769040453385
sS'qing'
p3965
F7.243155512642015
sS'completing'
p3966
F7.243155512642015
sS'firing'
p3967
F6.5500083320820695
sS'ids'
p3968
F7.243155512642015
sS'stonewall'
p3969
F7.243155512642015
sS'simulation'
p3970
F7.243155512642015
sS'awwww'
p3971
F7.243155512642015
sS'idk'
p3972
F5.53840742040359
sS'hatred'
p3973
F7.243155512642015
sS'ide'
p3974
F7.243155512642015
sS'bleeds'
p3975
F7.243155512642015
sS'block'
p3976
F6.5500083320820695
sS'amendment'
p3977
F7.243155512642015
sS'visit'
p3978
F6.83769040453385
sS'sports'
p3979
F6.83769040453385
sS'impressed'
p3980
F7.243155512642015
sS'entitlement'
p3981
F7.243155512642015
sS'jameson'
p3982
F7.243155512642015
sS'question'
p3983
F5.53840742040359
sS'fast'
p3984
F6.144543223973905
sS'heroku'
p3985
F6.5500083320820695
sS'consultation'
p3986
F7.243155512642015
sS'adam'
p3987
F6.83769040453385
sS'scared'
p3988
F7.243155512642015
sS'files'
p3989
F6.83769040453385
sS'gamestop'
p3990
F7.243155512642015
sS'politicans'
p3991
F7.243155512642015
sS'properly'
p3992
F6.83769040453385
sS'repeatedly'
p3993
F7.243155512642015
sS'delta'
p3994
F6.32686478076786
sS'russian'
p3995
F6.83769040453385
sS'fffuuuu'
p3996
F7.243155512642015
sS'raising'
p3997
F6.83769040453385
sS'info'
p3998
F6.5500083320820695
sS'patriot'
p3999
F7.243155512642015
sS'intuitive'
p4000
F7.243155512642015
sS'urbandictionary'
p4001
F7.243155512642015
sS'mobile'
p4002
F6.83769040453385
sS'boards'
p4003
F7.243155512642015
sS'called'
p4004
F5.633717600207914
sS'uber'
p4005
F7.243155512642015
sS'associated'
p4006
F6.83769040453385
sS'worthwhile'
p4007
F6.83769040453385
sS'shortcuts'
p4008
F6.83769040453385
sS'accessibility'
p4009
F6.83769040453385
sS'doesn'
p4010
F4.569006863215486
sS'warning'
p4011
F6.83769040453385
sS'psychopath'
p4012
F7.243155512642015
sS'lemon'
p4013
F7.243155512642015
sS'conductor'
p4014
F7.243155512642015
sS'buffer'
p4015
F6.83769040453385
sS'rains'
p4016
F6.83769040453385
sS'peace'
p4017
F7.243155512642015
sS'application'
p4018
F6.5500083320820695
sS'nap'
p4019
F7.243155512642015
sS'naw'
p4020
F7.243155512642015
sS'income'
p4021
F6.32686478076786
sS'department'
p4022
F6.32686478076786
sS'acceptable'
p4023
F7.243155512642015
sS'nice'
p4024
F4.845260239843644
sS'draw'
p4025
F7.243155512642015
sS'spectators'
p4026
F7.243155512642015
sS'generates'
p4027
F7.243155512642015
sS'liberalism'
p4028
F6.83769040453385
sS'problems'
p4029
F5.990392544146647
sS'assimilation'
p4030
F6.83769040453385
sS'helping'
p4031
F6.5500083320820695
sS'meaning'
p4032
F6.83769040453385
sS'structure'
p4033
F7.243155512642015
sS'svn'
p4034
F6.83769040453385
sS'required'
p4035
F7.243155512642015
sS'resolving'
p4036
F7.243155512642015
sS'microsoft'
p4037
F6.83769040453385
sS'karma'
p4038
F6.83769040453385
sS'narrative'
p4039
F7.243155512642015
sS'imprecise'
p4040
F7.243155512642015
sS'scroll'
p4041
F7.243155512642015
sS'katz'
p4042
F7.243155512642015
sS'issued'
p4043
F7.243155512642015
sS'resistance'
p4044
F7.243155512642015
sS'steve'
p4045
F6.5500083320820695
sS'archaeologists'
p4046
F7.243155512642015
sS'tweeted'
p4047
F5.73907811586574
sS'contributions'
p4048
F7.243155512642015
sS'issues'
p4049
F5.53840742040359
sS'compact'
p4050
F7.243155512642015
sS'yeungling'
p4051
F7.243155512642015
sS'letterpress'
p4052
F7.243155512642015
sS'blindingly'
p4053
F7.243155512642015
sS'languages'
p4054
F5.990392544146647
sS'farmhouseconf'
p4055
F7.243155512642015
sS'suite'
p4056
F7.243155512642015
sS'include'
p4057
F6.144543223973905
sS'junit'
p4058
F7.243155512642015
sS'confirmation'
p4059
F7.243155512642015
sS'wished'
p4060
F7.243155512642015
sS'wave'
p4061
F7.243155512642015
sS'wishes'
p4062
F7.243155512642015
sS'facebook'
p4063
F5.53840742040359
sS'telling'
p4064
F6.83769040453385
sS'materialism'
p4065
F7.243155512642015
sS'incoherent'
p4066
F7.243155512642015
sS'stiff'
p4067
F7.243155512642015
sS'gender'
p4068
F5.163713970962179
sS'button'
p4069
F6.83769040453385
sS'michael'
p4070
F6.83769040453385
sS'facebooks'
p4071
F7.243155512642015
sS'quoting'
p4072
F7.243155512642015
sS'disclaimer'
p4073
F7.243155512642015
sS'someday'
p4074
F6.144543223973905
sS'smaller'
p4075
F7.243155512642015
sS'jump'
p4076
F7.243155512642015
sS'fold'
p4077
F7.243155512642015
sS'traveling'
p4078
F6.83769040453385
sS'picked'
p4079
F7.243155512642015
sS'concludes'
p4080
F7.243155512642015
sS'download'
p4081
F6.83769040453385
sS'manipulating'
p4082
F7.243155512642015
sS'click'
p4083
F6.83769040453385
sS'cfp'
p4084
F7.243155512642015
sS'universities'
p4085
F7.243155512642015
sS'plays'
p4086
F6.83769040453385
sS'paintings'
p4087
F7.243155512642015
sS'bdo'
p4088
F7.243155512642015
sS'resque'
p4089
F5.73907811586574
sS'cell'
p4090
F6.144543223973905
sS'waiting'
p4091
F6.32686478076786
sS'capital'
p4092
F5.990392544146647
sS'nazis'
p4093
F7.243155512642015
sS'chose'
p4094
F7.243155512642015
sS'degree'
p4095
F6.83769040453385
sS'pushing'
p4096
F7.243155512642015
sS'commercial'
p4097
F7.243155512642015
sS'radicals'
p4098
F7.243155512642015
sS'explore'
p4099
F7.243155512642015
sS'focused'
p4100
F7.243155512642015
sS'sexy'
p4101
F7.243155512642015
sS'convert'
p4102
F7.243155512642015
sS'playsible'
p4103
F7.243155512642015
sS'pocari'
p4104
F7.243155512642015
sS'chans'
p4105
F7.243155512642015
sS'leaving'
p4106
F6.83769040453385
sS'suggests'
p4107
F7.243155512642015
sS'products'
p4108
F7.243155512642015
sS'gene'
p4109
F7.243155512642015
sS'shovel'
p4110
F7.243155512642015
sS'apple'
p4111
F6.32686478076786
sS'heart'
p4112
F6.5500083320820695
sS'app'
p4113
F5.633717600207914
sS'apt'
p4114
F6.83769040453385
sS'addressed'
p4115
F7.243155512642015
sS'api'
p4116
F5.856861151522124
sS'duck'
p4117
F7.243155512642015
sS'summation'
p4118
F7.243155512642015
sS'apply'
p4119
F7.243155512642015
sS'hardt'
p4120
F6.83769040453385
sS'cloud'
p4121
F6.32686478076786
sS'usg'
p4122
F7.243155512642015
sS'fed'
p4123
F7.243155512642015
sS'metaphor'
p4124
F7.243155512642015
sS'usb'
p4125
F7.243155512642015
sS'usa'
p4126
F6.83769040453385
sS'procrastinate'
p4127
F7.243155512642015
sS'hiding'
p4128
F7.243155512642015
sS'fridg'
p4129
F7.243155512642015
sS'sort'
p4130
F5.990392544146647
sS'journalists'
p4131
F6.32686478076786
sS'started'
p4132
F5.22825249209975
sS'initial'
p4133
F7.243155512642015
sS'improve'
p4134
F6.83769040453385
sS'confused'
p4135
F6.144543223973905
sS'rabbit'
p4136
F7.243155512642015
sS'women'
p4137
F5.103089349145744
sS'announcing'
p4138
F6.83769040453385
sS'unarmed'
p4139
F7.243155512642015
sS'ride'
p4140
F6.83769040453385
sS'sandberg'
p4141
F7.243155512642015
sS'meet'
p4142
F5.856861151522124
sS'proof'
p4143
F6.83769040453385
sS'control'
p4144
F6.5500083320820695
sS'proprietary'
p4145
F6.32686478076786
sS'links'
p4146
F6.144543223973905
sS'spying'
p4147
F5.73907811586574
sS'sudo'
p4148
F7.243155512642015
sS'halloween'
p4149
F7.243155512642015
sS'risque'
p4150
F7.243155512642015
sS'assumptions'
p4151
F7.243155512642015
sS'tab'
p4152
F7.243155512642015
sS'dominant'
p4153
F7.243155512642015
sS'protip'
p4154
F6.83769040453385
sS'voice'
p4155
F7.243155512642015
sS'rape'
p4156
F5.633717600207914
sS'sir'
p4157
F7.243155512642015
sS'united'
p4158
F6.144543223973905
sS'syndrome'
p4159
F7.243155512642015
sS'sit'
p4160
F7.243155512642015
sS'privatize'
p4161
F6.83769040453385
sS'sin'
p4162
F6.5500083320820695
sS'tension'
p4163
F6.83769040453385
sS'turbolinks'
p4164
F6.83769040453385
sS'angolmois'
p4165
F7.243155512642015
sS'barricades'
p4166
F6.83769040453385
sS'abuse'
p4167
F6.5500083320820695
sS'light'
p4168
F6.5500083320820695
sS'wwii'
p4169
F7.243155512642015
sS'advocates'
p4170
F6.83769040453385
sS'honestly'
p4171
F6.32686478076786
sS'software'
p4172
F4.940570419647969
sS'wonka'
p4173
F7.243155512642015
sS'theft'
p4174
F7.243155512642015
sS'reporters'
p4175
F7.243155512642015
sS'damsel'
p4176
F7.243155512642015
sS'including'
p4177
F6.5500083320820695
sS'costume'
p4178
F7.243155512642015
sS'cruise'
p4179
F7.243155512642015
sS'mentioned'
p4180
F7.243155512642015
sS'letters'
p4181
F6.83769040453385
sS'ladot'
p4182
F7.243155512642015
sS'badges'
p4183
F6.83769040453385
sS'lounge'
p4184
F6.83769040453385
sS'outer'
p4185
F7.243155512642015
sS'exclusion'
p4186
F7.243155512642015
sS'accommodations'
p4187
F7.243155512642015
sS'crticode'
p4188
F7.243155512642015
sS'choose'
p4189
F6.5500083320820695
sS'covered'
p4190
F7.243155512642015
sS'alexander'
p4191
F6.5500083320820695
sS'pending'
p4192
F7.243155512642015
sS'crash'
p4193
F7.243155512642015
sS'orthodox'
p4194
F7.243155512642015
sS'practice'
p4195
F6.144543223973905
sS'camino'
p4196
F7.243155512642015
sS'commitment'
p4197
F6.5500083320820695
sS'bio'
p4198
F6.83769040453385
sS'hands'
p4199
F7.243155512642015
sS'front'
p4200
F6.83769040453385
sS'impaired'
p4201
F6.83769040453385
sS'flee'
p4202
F7.243155512642015
sS'handy'
p4203
F6.83769040453385
sS'gassed'
p4204
F7.243155512642015
sS'worlds'
p4205
F7.243155512642015
sS'mastery'
p4206
F7.243155512642015
sS'mode'
p4207
F7.243155512642015
sS'frickin'
p4208
F7.243155512642015
sS'crossing'
p4209
F7.243155512642015
sS'psssh'
p4210
F7.243155512642015
sS'lololololol'
p4211
F7.243155512642015
sS'margins'
p4212
F7.243155512642015
sS'gezipark'
p4213
F7.243155512642015
sS'sandy'
p4214
F7.243155512642015
sS'secretly'
p4215
F7.243155512642015
sS'entertainment'
p4216
F7.243155512642015
sS'chaos'
p4217
F7.243155512642015
sS'activist'
p4218
F7.243155512642015
sS'hmmmmm'
p4219
F7.243155512642015
sS'supports'
p4220
F6.83769040453385
sS'integrated'
p4221
F7.243155512642015
sS'ecc'
p4222
F6.5500083320820695
sS'pours'
p4223
F7.243155512642015
sS'undo'
p4224
F7.243155512642015
sS'attending'
p4225
F6.83769040453385
sS'completely'
p4226
F6.32686478076786
sS'york'
p4227
F7.243155512642015
sS'conservatives'
p4228
F7.243155512642015
sS'obscure'
p4229
F7.243155512642015
sS'times'
p4230
F5.633717600207914
sS'facetime'
p4231
F7.243155512642015
sS'conversation'
p4232
F7.243155512642015
sS'produce'
p4233
F7.243155512642015
sS'protagonists'
p4234
F6.5500083320820695
sS'austin'
p4235
F7.243155512642015
sS'backers'
p4236
F7.243155512642015
sS'plainly'
p4237
F7.243155512642015
sS'blogger'
p4238
F6.32686478076786
sS'powerful'
p4239
F6.83769040453385
sS'bootcamp'
p4240
F7.243155512642015
sS'mocks'
p4241
F7.243155512642015
sS'moderated'
p4242
F7.243155512642015
sS'mak'
p4243
F7.243155512642015
sS'blogged'
p4244
F7.243155512642015
sS'unssure'
p4245
F7.243155512642015
sS'management'
p4246
F7.243155512642015
sS'privacy'
p4247
F6.83769040453385
sS'data'
p4248
F4.891780255478537
sS'unequivocal'
p4249
F7.243155512642015
sS'relations'
p4250
F7.243155512642015
sS'priority'
p4251
F7.243155512642015
sS'attack'
p4252
F6.83769040453385
sS'perfectly'
p4253
F7.243155512642015
sS'final'
p4254
F7.243155512642015
sS'abbie'
p4255
F7.243155512642015
sS'beard'
p4256
F6.83769040453385
sS'vine'
p4257
F7.243155512642015
sS'exactly'
p4258
F5.045930935305795
sS'lists'
p4259
F6.83769040453385
sS'slides'
p4260
F6.83769040453385
sS'july'
p4261
F6.83769040453385
sS'overwhelming'
p4262
F7.243155512642015
sS'institution'
p4263
F7.243155512642015
sS'updating'
p4264
F7.243155512642015
sS'dicks'
p4265
F7.243155512642015
sS'commodity'
p4266
F6.83769040453385
sS'culture'
p4267
F6.32686478076786
sS'boring'
p4268
F6.5500083320820695
sS'bed'
p4269
F6.83769040453385
sS'claim'
p4270
F6.5500083320820695
sS'dumb'
p4271
F6.32686478076786
sS'providing'
p4272
F7.243155512642015
sS'bet'
p4273
F6.83769040453385
sS'woot'
p4274
F7.243155512642015
sS'broadway'
p4275
F7.243155512642015
sS'tabs'
p4276
F7.243155512642015
sS'julian'
p4277
F7.243155512642015
sS'stallman'
p4278
F7.243155512642015
sS'variable'
p4279
F6.83769040453385
sS'enforces'
p4280
F7.243155512642015
sS'close'
p4281
F5.53840742040359
sS'facing'
p4282
F7.243155512642015
sS'border'
p4283
F6.5500083320820695
sS'linked'
p4284
F6.32686478076786
sS'angle'
p4285
F7.243155512642015
sS'leninist'
p4286
F7.243155512642015
sS'agency'
p4287
F7.243155512642015
sS'teargas'
p4288
F7.243155512642015
sS'contact'
p4289
F6.83769040453385
sS'instance'
p4290
F7.243155512642015
sS'relatives'
p4291
F7.243155512642015
sS'tactic'
p4292
F7.243155512642015
sS'asshole'
p4293
F6.83769040453385
sS'lectures'
p4294
F7.243155512642015
sS'wha'
p4295
F7.243155512642015
sS'clash'
p4296
F6.83769040453385
sS'aww'
p4297
F6.32686478076786
sS'aws'
p4298
F6.83769040453385
sS'harmful'
p4299
F7.243155512642015
sS'intentions'
p4300
F7.243155512642015
sS'connected'
p4301
F7.243155512642015
sS'cracking'
p4302
F7.243155512642015
sS'cosplay'
p4303
F7.243155512642015
sS'class'
p4304
F5.22825249209975
sS'snapjoy'
p4305
F6.83769040453385
sS'deny'
p4306
F7.243155512642015
sS'academy'
p4307
F7.243155512642015
sS'url'
p4308
F6.32686478076786
sS'uri'
p4309
F6.83769040453385
sS'looked'
p4310
F6.5500083320820695
sS'snapshot'
p4311
F7.243155512642015
sS'databases'
p4312
F7.243155512642015
sS'miniaswan'
p4313
F7.243155512642015
sS'violation'
p4314
F7.243155512642015
sS'encrypted'
p4315
F6.32686478076786
sS'firstworldproblem'
p4316
F7.243155512642015
sS'spanking'
p4317
F7.243155512642015
sS'chapters'
p4318
F7.243155512642015
sS'planning'
p4319
F6.32686478076786
sS'parked'
p4320
F7.243155512642015
sS'fear'
p4321
F7.243155512642015
sS'eyes'
p4322
F6.5500083320820695
sS'partners'
p4323
F7.243155512642015
sS'based'
p4324
F5.371353335740423
sS'hadn'
p4325
F7.243155512642015
sS'nucleon'
p4326
F6.83769040453385
sS'unions'
p4327
F6.83769040453385
sS'employer'
p4328
F7.243155512642015
sS'reactive'
p4329
F6.83769040453385
sS'manipulat'
p4330
F7.243155512642015
sS'precrime'
p4331
F7.243155512642015
sS'combo'
p4332
F7.243155512642015
sS'employee'
p4333
F6.5500083320820695
sS'employed'
p4334
F7.243155512642015
sS'local'
p4335
F6.5500083320820695
sS'sued'
p4336
F7.243155512642015
sS'watching'
p4337
F6.5500083320820695
sS'lots'
p4338
F4.940570419647969
sS'vim'
p4339
F7.243155512642015
sS'tbh'
p4340
F6.83769040453385
sS'awww'
p4341
F6.5500083320820695
sS'legitimate'
p4342
F6.83769040453385
sS'entity'
p4343
F7.243155512642015
sS'scrolling'
p4344
F7.243155512642015
sS'brain'
p4345
F7.243155512642015
sS'edsger'
p4346
F7.243155512642015
sS'grab'
p4347
F6.5500083320820695
sS'prepaid'
p4348
F7.243155512642015
sS'futuristic'
p4349
F7.243155512642015
sS'preach'
p4350
F7.243155512642015
sS'europe'
p4351
F6.83769040453385
sS'acquired'
p4352
F7.243155512642015
sS'pitch'
p4353
F7.243155512642015
sS'humans'
p4354
F7.243155512642015
sS'module'
p4355
F6.83769040453385
sS'whatevs'
p4356
F7.243155512642015
sS'legacy'
p4357
F6.83769040453385
sS'powder'
p4358
F7.243155512642015
sS'cyberpunk'
p4359
F7.243155512642015
sS'gmail'
p4360
F6.83769040453385
sS'closer'
p4361
F7.243155512642015
sS'televised'
p4362
F7.243155512642015
sS'arguably'
p4363
F7.243155512642015
sS'tend'
p4364
F6.32686478076786
sS'favor'
p4365
F7.243155512642015
sS'written'
p4366
F5.73907811586574
sS'closed'
p4367
F6.144543223973905
sS'horrible'
p4368
F7.243155512642015
sS'tens'
p4369
F7.243155512642015
sS'rendition'
p4370
F7.243155512642015
sS'frustrated'
p4371
F7.243155512642015
sS'bought'
p4372
F6.32686478076786
sS'zeitgeist'
p4373
F6.5500083320820695
sS'ability'
p4374
F7.243155512642015
sS'opening'
p4375
F7.243155512642015
sS'embarrassment'
p4376
F7.243155512642015
sS'job'
p4377
F5.990392544146647
sS'key'
p4378
F6.32686478076786
sS'police'
p4379
F4.891780255478537
sS'distribution'
p4380
F6.5500083320820695
sS'wapo'
p4381
F7.243155512642015
sS'hoooooly'
p4382
F7.243155512642015
sS'admin'
p4383
F6.83769040453385
sS'incident'
p4384
F7.243155512642015
sS'minds'
p4385
F7.243155512642015
sS'april'
p4386
F7.243155512642015
sS'admit'
p4387
F6.83769040453385
sS'tactical'
p4388
F7.243155512642015
sS'wall'
p4389
F7.243155512642015
sS'walk'
p4390
F6.5500083320820695
sS'betrayed'
p4391
F7.243155512642015
sS'wiunion'
p4392
F7.243155512642015
sS'respect'
p4393
F6.83769040453385
sS'peacocking'
p4394
F7.243155512642015
sS'yay'
p4395
F6.144543223973905
sS'yaml'
p4396
F6.83769040453385
sS'decent'
p4397
F6.83769040453385
sS'hunters'
p4398
F7.243155512642015
sS'responds'
p4399
F7.243155512642015
sS'literal'
p4400
F7.243155512642015
sS'slowly'
p4401
F7.243155512642015
sS'treat'
p4402
F6.5500083320820695
sS'username'
p4403
F7.243155512642015
sS'pic'
p4404
F6.83769040453385
sS'diversity'
p4405
F7.243155512642015
sS'verizon'
p4406
F6.83769040453385
sS'league'
p4407
F7.243155512642015
sS'sufficient'
p4408
F7.243155512642015
sS'releasing'
p4409
F7.243155512642015
sS'crappy'
p4410
F7.243155512642015
sS'policy'
p4411
F6.83769040453385
sS'controller'
p4412
F7.243155512642015
sS'abortions'
p4413
F7.243155512642015
sS'novel'
p4414
F6.83769040453385
sS'license'
p4415
F5.73907811586574
sS'fearful'
p4416
F7.243155512642015
sS'zuccotti'
p4417
F7.243155512642015
sS'harder'
p4418
F6.83769040453385
sS'queuing'
p4419
F7.243155512642015
sS'will'
p4420
F3.132281648468703
sS'texas'
p4421
F6.83769040453385
sS'owns'
p4422
F7.243155512642015
sS'rename'
p4423
F7.243155512642015
sS'layer'
p4424
F7.243155512642015
sS'harassed'
p4425
F7.243155512642015
sS'fitbit'
p4426
F7.243155512642015
sS'bucks'
p4427
F7.243155512642015
sS'capture'
p4428
F7.243155512642015
sS'recorded'
p4429
F6.5500083320820695
sS'generic'
p4430
F7.243155512642015
sS'cross'
p4431
F6.83769040453385
sS'strange'
p4432
F6.32686478076786
sS'largest'
p4433
F7.243155512642015
sS'party'
p4434
F6.32686478076786
sS'disciple'
p4435
F7.243155512642015
sS'difficult'
p4436
F7.243155512642015
sS'cellphones'
p4437
F7.243155512642015
sS'http'
p4438
F6.32686478076786
sS'disagree'
p4439
F6.83769040453385
sS'diploma'
p4440
F7.243155512642015
sS'frequently'
p4441
F7.243155512642015
sS'chruby'
p4442
F6.5500083320820695
sS'arse'
p4443
F7.243155512642015
sS'transaction'
p4444
F7.243155512642015
sS'lunch'
p4445
F6.83769040453385
sS'shalom'
p4446
F7.243155512642015
sS'fighting'
p4447
F6.32686478076786
sS'innovating'
p4448
F7.243155512642015
sS'drone'
p4449
F6.144543223973905
sS'english'
p4450
F6.5500083320820695
sS'tails'
p4451
F7.243155512642015
sS'bending'
p4452
F7.243155512642015
sS'restore'
p4453
F7.243155512642015
sS'rigor'
p4454
F7.243155512642015
sS'heavily'
p4455
F6.83769040453385
sS'increasingly'
p4456
F7.243155512642015
sS'percent'
p4457
F6.83769040453385
sS'dose'
p4458
F7.243155512642015
sS'batteries'
p4459
F7.243155512642015
sS'mistakes'
p4460
F7.243155512642015
sS'fishing'
p4461
F7.243155512642015
sS'direngeziparki'
p4462
F7.243155512642015
sS'freenode'
p4463
F7.243155512642015
sS'point'
p4464
F5.163713970962179
sS'smith'
p4465
F6.83769040453385
sS'trolled'
p4466
F7.243155512642015
sS'knew'
p4467
F6.32686478076786
sS'bullshit'
p4468
F5.53840742040359
sS'battery'
p4469
F5.990392544146647
sS'nato'
p4470
F7.243155512642015
sS'usage'
p4471
F7.243155512642015
sS'upvotes'
p4472
F7.243155512642015
sS'warrant'
p4473
F6.5500083320820695
sS'details'
p4474
F5.73907811586574
sS'identical'
p4475
F6.5500083320820695
sS'sick'
p4476
F6.83769040453385
sS'sokal'
p4477
F7.243155512642015
sS'utah'
p4478
F7.243155512642015
sS'protesters'
p4479
F5.990392544146647
sS'press'
p4480
F5.297245363586701
sS'prominent'
p4481
F7.243155512642015
sS'racists'
p4482
F7.243155512642015
sS'theor'
p4483
F7.243155512642015
sS'helpful'
p4484
F7.243155512642015
sS'lost'
p4485
F6.83769040453385
sS'sizes'
p4486
F7.243155512642015
sS'anonymizi'
p4487
F7.243155512642015
sS'loses'
p4488
F7.243155512642015
sS'lose'
p4489
F7.243155512642015
sS'setups'
p4490
F7.243155512642015
sS'backlog'
p4491
F7.243155512642015
sS'twitter'
p4492
F4.991863714035519
sS'tumblr'
p4493
F7.243155512642015
sS'kinds'
p4494
F6.83769040453385
sS'liking'
p4495
F6.83769040453385
sS'agpl'
p4496
F6.32686478076786
sS'indefinite'
p4497
F6.83769040453385
sS'jeremy'
p4498
F7.243155512642015
sS'learn'
p4499
F5.53840742040359
sS'operation'
p4500
F7.243155512642015
sS'leak'
p4501
F6.5500083320820695
sS'lean'
p4502
F7.243155512642015
sS'fountain'
p4503
F7.243155512642015
sS'sponsoring'
p4504
F7.243155512642015
sS'wendy'
p4505
F6.5500083320820695
sS'limitations'
p4506
F7.243155512642015
sS'inaccurate'
p4507
F6.83769040453385
sS'decline'
p4508
F7.243155512642015
sS'journal'
p4509
F7.243155512642015
sS'enum'
p4510
F7.243155512642015
sS'java'
p4511
F6.5500083320820695
sS'pike'
p4512
F7.243155512642015
sS'rare'
p4513
F7.243155512642015
sS'column'
p4514
F7.243155512642015
sS'freedom'
p4515
F5.53840742040359
sS'recognized'
p4516
F7.243155512642015
sS'compatible'
p4517
F5.990392544146647
sS'sweat'
p4518
F7.243155512642015
sS'clojure'
p4519
F7.243155512642015
sS'heroics'
p4520
F7.243155512642015
sS'autocorrect'
p4521
F6.5500083320820695
sS'polished'
p4522
F7.243155512642015
sS'argumentative'
p4523
F7.243155512642015
sS'glenn'
p4524
F6.83769040453385
sS'warrants'
p4525
F6.83769040453385
sS'nerves'
p4526
F7.243155512642015
sS'tag'
p4527
F6.83769040453385
sS'bruteforce'
p4528
F7.243155512642015
sS'artists'
p4529
F7.243155512642015
sS'backups'
p4530
F6.83769040453385
sS'dispossessed'
p4531
F7.243155512642015
sS'pointless'
p4532
F7.243155512642015
sS'ows'
p4533
F6.83769040453385
sS'utility'
p4534
F7.243155512642015
sS'gentrifying'
p4535
F7.243155512642015
sS'nuke'
p4536
F7.243155512642015
sS'van'
p4537
F7.243155512642015
sS'exciting'
p4538
F7.243155512642015
sS'egalitarian'
p4539
F7.243155512642015
sS'recruiter'
p4540
F7.243155512642015
sS'apps'
p4541
F6.32686478076786
sS'kidding'
p4542
F6.83769040453385
sS'dropping'
p4543
F6.32686478076786
sS'damn'
p4544
F5.371353335740423
sS'punditocracy'
p4545
F7.243155512642015
sS'jury'
p4546
F7.243155512642015
sS'triggered'
p4547
F7.243155512642015
sS'tinged'
p4548
F7.243155512642015
sS'blaming'
p4549
F7.243155512642015
sS'volume'
p4550
F7.243155512642015
sS'neutral'
p4551
F7.243155512642015
sS'challenges'
p4552
F7.243155512642015
sS'protesting'
p4553
F7.243155512642015
sS'hosting'
p4554
F6.83769040453385
sS'signed'
p4555
F6.83769040453385
sS'record'
p4556
F6.5500083320820695
sS'stories'
p4557
F7.243155512642015
sS'ruling'
p4558
F7.243155512642015
sS'dmv'
p4559
F7.243155512642015
sS'pumped'
p4560
F7.243155512642015
sS'cake'
p4561
F7.243155512642015
sS'demonstrate'
p4562
F7.243155512642015
sS'piece'
p4563
F7.243155512642015
sS'horrific'
p4564
F7.243155512642015
sS'generating'
p4565
F6.83769040453385
sS'education'
p4566
F7.243155512642015
sS'booz'
p4567
F6.5500083320820695
sS'redis'
p4568
F7.243155512642015
sS'incredible'
p4569
F7.243155512642015
sS'meaningless'
p4570
F6.83769040453385
sS'boot'
p4571
F7.243155512642015
sS'scahill'
p4572
F7.243155512642015
sS'book'
p4573
F5.53840742040359
sS'aclu'
p4574
F7.243155512642015
sS'branch'
p4575
F6.83769040453385
sS'worker'
p4576
F7.243155512642015
sS'incredibly'
p4577
F6.83769040453385
sS'canada'
p4578
F7.243155512642015
sS'star'
p4579
F6.83769040453385
sS'june'
p4580
F7.243155512642015
sS'pssssh'
p4581
F6.83769040453385
sS'inherently'
p4582
F6.144543223973905
sS'stay'
p4583
F6.5500083320820695
sS'kinda'
p4584
F5.856861151522124
sS'gap'
p4585
F6.83769040453385
sS'friends'
p4586
F5.22825249209975
sS'debian'
p4587
F5.73907811586574
sS'foia'
p4588
F6.83769040453385
sS'sass'
p4589
F7.243155512642015
sS'samsung'
p4590
F7.243155512642015
sS'atheist'
p4591
F7.243155512642015
sS'atheism'
p4592
F6.83769040453385
sS'bcx'
p4593
F7.243155512642015
sS'antiwar'
p4594
F7.243155512642015
sS'taksim'
p4595
F6.83769040453385
stp4596
Rp4597
(dp4598
S'corpus_size'
p4599
I2797
sbsb.